GAS LISTING C:\Users\thouli\AppData\Local\Temp\cc8sA0gt.s 			page 1


   1               		.file	"main.c"
   2               	__SP_H__ = 0x3e
   3               	__SP_L__ = 0x3d
   4               	__SREG__ = 0x3f
   5               	__tmp_reg__ = 0
   6               	__zero_reg__ = 1
   7               		.text
   8               	.Ltext0:
   9               		.cfi_sections	.debug_frame
  10               		.section	.text.writeWordToPageBuffer,"ax",@progbits
  11               		.type	writeWordToPageBuffer, @function
  12               	writeWordToPageBuffer:
  13               	.LFB22:
  14               		.file 1 "main.c"
   1:main.c        **** /* 
   2:main.c        ****  * Project: Micronucleus -  v2.04
   3:main.c        ****  *
   4:main.c        ****  * Micronucleus V2.04             (c) 2016 Tim Bo"scke - cpldcpu@gmail.com
   5:main.c        ****  *                               (c) 2014 Shay Green
   6:main.c        ****  * Original Micronucleus         (c) 2012 Jenna Fox
   7:main.c        ****  *
   8:main.c        ****  * Based on USBaspLoader-tiny85  (c) 2012 Louis Beaudoin
   9:main.c        ****  * Based on USBaspLoader         (c) 2007 by OBJECTIVE DEVELOPMENT Software GmbH
  10:main.c        ****  *
  11:main.c        ****  * License: GNU GPL v2 (see License.txt)
  12:main.c        ****  */
  13:main.c        ****  
  14:main.c        **** #define MICRONUCLEUS_VERSION_MAJOR 2
  15:main.c        **** #define MICRONUCLEUS_VERSION_MINOR 4
  16:main.c        **** 
  17:main.c        **** #include <avr/io.h>
  18:main.c        **** #include <avr/pgmspace.h>
  19:main.c        **** #include <avr/wdt.h>
  20:main.c        **** #include <avr/boot.h>
  21:main.c        **** #include <util/delay.h>
  22:main.c        **** 
  23:main.c        **** #include "bootloaderconfig.h"
  24:main.c        **** #include "usbdrv/usbdrv.c"
  25:main.c        **** 
  26:main.c        **** // verify the bootloader address aligns with page size
  27:main.c        **** #if (defined __AVR_ATtiny841__)||(defined __AVR_ATtiny441__)  
  28:main.c        ****   #if BOOTLOADER_ADDRESS % ( SPM_PAGESIZE * 4 ) != 0
  29:main.c        ****     #error "BOOTLOADER_ADDRESS in makefile must be a multiple of chip's pagesize"
  30:main.c        ****   #endif
  31:main.c        **** #else
  32:main.c        ****   #if BOOTLOADER_ADDRESS % SPM_PAGESIZE != 0
  33:main.c        ****     #error "BOOTLOADER_ADDRESS in makefile must be a multiple of chip's pagesize"
  34:main.c        ****   #endif  
  35:main.c        **** #endif
  36:main.c        **** 
  37:main.c        **** #if SPM_PAGESIZE>256
  38:main.c        ****   #error "Micronucleus only supports pagesizes up to 256 bytes"
  39:main.c        **** #endif
  40:main.c        **** 
  41:main.c        **** #if ((AUTO_EXIT_MS>0) && (AUTO_EXIT_MS<1000))
  42:main.c        ****   #error "Do not set AUTO_EXIT_MS to below 1s to allow Micronucleus to function properly"
  43:main.c        **** #endif
GAS LISTING C:\Users\thouli\AppData\Local\Temp\cc8sA0gt.s 			page 2


  44:main.c        **** 
  45:main.c        **** // Device configuration reply
  46:main.c        **** // Length: 6 bytes
  47:main.c        **** //   Byte 0:  User program memory size, high byte
  48:main.c        **** //   Byte 1:  User program memory size, low byte   
  49:main.c        **** //   Byte 2:  Flash Pagesize in bytes
  50:main.c        **** //   Byte 3:  Page write timing in ms. 
  51:main.c        **** //    Bit 7 '0': Page erase time equals page write time
  52:main.c        **** //    Bit 7 '1': Page erase time equals page write time divided by 4
  53:main.c        **** //   Byte 4:  SIGNATURE_1
  54:main.c        **** //   Byte 5:  SIGNATURE_2 
  55:main.c        **** 
  56:main.c        **** PROGMEM const uint8_t configurationReply[6] = {
  57:main.c        ****   (((uint16_t)PROGMEM_SIZE) >> 8) & 0xff,
  58:main.c        ****   ((uint16_t)PROGMEM_SIZE) & 0xff,
  59:main.c        ****   SPM_PAGESIZE,
  60:main.c        ****   MICRONUCLEUS_WRITE_SLEEP,
  61:main.c        ****   SIGNATURE_1,
  62:main.c        ****   SIGNATURE_2
  63:main.c        **** };  
  64:main.c        **** 
  65:main.c        ****   typedef union {
  66:main.c        ****     uint16_t w;
  67:main.c        ****     uint8_t b[2];
  68:main.c        ****   } uint16_union_t;
  69:main.c        ****   
  70:main.c        **** #if OSCCAL_RESTORE_DEFAULT
  71:main.c        ****   register uint8_t      osccal_default  asm("r2");
  72:main.c        **** #endif 
  73:main.c        **** 
  74:main.c        **** register uint16_union_t currentAddress  asm("r4");  // r4/r5 current progmem address, used for eras
  75:main.c        **** register uint16_union_t idlePolls       asm("r6");  // r6/r7 idlecounter
  76:main.c        **** 
  77:main.c        **** // command system schedules functions to run in the main loop
  78:main.c        **** enum {
  79:main.c        ****   cmd_local_nop=0, 
  80:main.c        ****   cmd_device_info=0,
  81:main.c        ****   cmd_transfer_page=1,
  82:main.c        ****   cmd_erase_application=2,
  83:main.c        ****   cmd_write_data=3,
  84:main.c        ****   cmd_exit=4,
  85:main.c        ****   cmd_write_page=64  // internal commands start at 64
  86:main.c        **** };
  87:main.c        **** register uint8_t        command         asm("r3");  // bind command to r3 
  88:main.c        **** 
  89:main.c        **** // Definition of sei and cli without memory barrier keyword to prevent reloading of memory variable
  90:main.c        **** #define sei() asm volatile("sei")
  91:main.c        **** #define cli() asm volatile("cli")
  92:main.c        **** #define nop() asm volatile("nop")
  93:main.c        **** #define wdr() asm volatile("wdr")
  94:main.c        **** 
  95:main.c        **** // Use the old delay routines without NOP padding. This saves memory.
  96:main.c        **** #define __DELAY_BACKWARD_COMPATIBLE__   
  97:main.c        **** 
  98:main.c        **** /* ------------------------------------------------------------------------ */
  99:main.c        **** static inline void eraseApplication(void);
 100:main.c        **** static void writeFlashPage(void);
GAS LISTING C:\Users\thouli\AppData\Local\Temp\cc8sA0gt.s 			page 3


 101:main.c        **** static void writeWordToPageBuffer(uint16_t data);
 102:main.c        **** static uint8_t usbFunctionSetup(uint8_t data[8]);
 103:main.c        **** static inline void leaveBootloader(void);
 104:main.c        **** 
 105:main.c        **** // This function is never called, it is just here to suppress a compiler warning.
 106:main.c        **** USB_PUBLIC usbMsgLen_t usbFunctionDescriptor(struct usbRequest *rq) { return 0; }
 107:main.c        **** 
 108:main.c        **** // erase all pages until bootloader, in reverse order (so our vectors stay in place for as long as 
 109:main.c        **** // to minimise the chance of leaving the device in a state where the bootloader wont run, if there'
 110:main.c        **** // during upload
 111:main.c        **** static inline void eraseApplication(void) {
 112:main.c        ****   uint16_t ptr = BOOTLOADER_ADDRESS;
 113:main.c        **** 
 114:main.c        ****   while (ptr) {
 115:main.c        **** #if (defined __AVR_ATtiny841__)||(defined __AVR_ATtiny441__)    
 116:main.c        ****     ptr -= SPM_PAGESIZE * 4;        
 117:main.c        **** #else
 118:main.c        ****     ptr -= SPM_PAGESIZE;        
 119:main.c        **** #endif    
 120:main.c        ****     boot_page_erase(ptr);
 121:main.c        **** #if (defined __AVR_ATmega328P__)||(defined __AVR_ATmega168P__)||(defined __AVR_ATmega88P__)
 122:main.c        ****     // the ATmegaATmega328p/168p/88p don't halt the CPU when writing to RWW flash, so we need to wa
 123:main.c        ****     boot_spm_busy_wait();
 124:main.c        **** #endif    
 125:main.c        ****   }
 126:main.c        ****   
 127:main.c        ****   // Reset address to ensure the reset vector is written first.
 128:main.c        ****   currentAddress.w = 0;   
 129:main.c        **** }
 130:main.c        **** 
 131:main.c        **** // simply write currently stored page in to already erased flash memory
 132:main.c        **** static inline void writeFlashPage(void) {
 133:main.c        ****   if (currentAddress.w - 2 <BOOTLOADER_ADDRESS) {
 134:main.c        ****     boot_page_write(currentAddress.w - 2);   // will halt CPU, no waiting required
 135:main.c        **** #if (defined __AVR_ATmega328P__)||(defined __AVR_ATmega168P__)||(defined __AVR_ATmega88P__)
 136:main.c        ****     // the ATmega328p/168p/88p don't halt the CPU when writing to RWW flash
 137:main.c        ****     boot_spm_busy_wait();
 138:main.c        **** #endif
 139:main.c        ****   }
 140:main.c        **** }
 141:main.c        **** 
 142:main.c        **** // Write a word into the page buffer.
 143:main.c        **** // Will patch the bootloader reset vector into the main vectortable to ensure
 144:main.c        **** // the device can not be bricked. Saving user-reset-vector is done in the host 
 145:main.c        **** // tool, starting with firmware V2
 146:main.c        **** static void writeWordToPageBuffer(uint16_t data) {
  15               		.loc 1 146 0
  16               		.cfi_startproc
  17               	.LVL0:
  18               	/* prologue: function */
  19               	/* frame size = 0 */
  20               	/* stack size = 0 */
  21               	.L__stack_usage = 0
 147:main.c        **** 
 148:main.c        **** #ifndef ENABLE_UNSAFE_OPTIMIZATIONS     
 149:main.c        ****   #if BOOTLOADER_ADDRESS < 8192
 150:main.c        ****   // rjmp
GAS LISTING C:\Users\thouli\AppData\Local\Temp\cc8sA0gt.s 			page 4


 151:main.c        ****   if (currentAddress.w == RESET_VECTOR_OFFSET * 2) {
  22               		.loc 1 151 0
  23 0000 F201      		movw r30,r4
  24 0002 3097      		sbiw r30,0
  25 0004 01F0      		breq .L3
 152:main.c        ****     data = 0xC000 + (BOOTLOADER_ADDRESS/2) - 1;
 153:main.c        ****   }
 154:main.c        ****   #else
 155:main.c        ****   // far jmp
 156:main.c        ****   if (currentAddress.w == RESET_VECTOR_OFFSET * 2) {
 157:main.c        ****     data = 0x940c;
 158:main.c        ****   } else if (currentAddress.w == (RESET_VECTOR_OFFSET +1 ) * 2) {
 159:main.c        ****     data = (BOOTLOADER_ADDRESS/2);
 160:main.c        ****   }    
 161:main.c        ****   #endif
 162:main.c        **** #endif
 163:main.c        **** 
 164:main.c        **** #if OSCCAL_SAVE_CALIB
 165:main.c        ****    if (currentAddress.w == BOOTLOADER_ADDRESS - TINYVECTOR_OSCCAL_OFFSET) {
  26               		.loc 1 165 0
  27 0006 2AE7      		ldi r18,122
  28 0008 4216      		cp r4,r18
  29 000a 29E1      		ldi r18,25
  30 000c 5206      		cpc r5,r18
  31 000e 01F4      		brne .L2
 166:main.c        ****       data = OSCCAL;
  32               		.loc 1 166 0
  33 0010 81B7      		in r24,0x31
  34               	.LVL1:
  35 0012 90E0      		ldi r25,0
  36               	.LVL2:
  37 0014 00C0      		rjmp .L2
  38               	.L3:
 152:main.c        ****     data = 0xC000 + (BOOTLOADER_ADDRESS/2) - 1;
  39               		.loc 1 152 0
  40 0016 8FEB      		ldi r24,lo8(-65)
  41 0018 9CEC      		ldi r25,lo8(-52)
  42               	.LVL3:
  43               	.L2:
 167:main.c        ****    }     
 168:main.c        **** #endif
 169:main.c        ****   boot_page_fill(currentAddress.w, data);
  44               		.loc 1 169 0
  45 001a 21E0      		ldi r18,lo8(1)
  46               	/* #APP */
  47               	 ;  169 "main.c" 1
  48 001c 0C01      		movw  r0, r24
  49 001e 2093 5700 		sts 87, r18
  50 0022 E895      		spm
  51 0024 1124      		clr  r1
  52               		
  53               	 ;  0 "" 2
 170:main.c        ****   currentAddress.w += 2;
  54               		.loc 1 170 0
  55               	/* #NOAPP */
  56 0026 CF01      		movw r24,r30
  57               	.LVL4:
GAS LISTING C:\Users\thouli\AppData\Local\Temp\cc8sA0gt.s 			page 5


  58 0028 0296      		adiw r24,2
  59 002a 2C01      		movw r4,r24
  60 002c 0895      		ret
  61               		.cfi_endproc
  62               	.LFE22:
  63               		.size	writeWordToPageBuffer, .-writeWordToPageBuffer
  64               		.section	.text.initHardware,"ax",@progbits
  65               		.type	initHardware, @function
  66               	initHardware:
  67               	.LFB24:
 171:main.c        **** }
 172:main.c        **** 
 173:main.c        **** /* ------------------------------------------------------------------------ */
 174:main.c        **** static uint8_t usbFunctionSetup(uint8_t data[8]) {
 175:main.c        ****   usbRequest_t *rq = (void *)data;
 176:main.c        ****   
 177:main.c        ****   idlePolls.b[1]=0; // reset idle polls when we get usb traffic
 178:main.c        ****   if (rq->bRequest == cmd_device_info) { // get device info
 179:main.c        ****     usbMsgPtr = (usbMsgPtr_t)configurationReply;
 180:main.c        ****     return sizeof(configurationReply);      
 181:main.c        ****   } else if (rq->bRequest == cmd_transfer_page) { 
 182:main.c        ****     // Set page address. Address zero always has to be written first to ensure reset vector patchin
 183:main.c        ****     // Mask to page boundary to prevent vulnerability to partial page write "attacks"
 184:main.c        ****     if ( currentAddress.w != 0 ) {
 185:main.c        ****       currentAddress.b[0]=rq->wIndex.bytes[0] & (~ (SPM_PAGESIZE-1));     
 186:main.c        ****       currentAddress.b[1]=rq->wIndex.bytes[1];     
 187:main.c        **** 
 188:main.c        ****       // clear page buffer as a precaution before filling the buffer in case 
 189:main.c        ****       // a previous write operation failed and there is still something in the buffer.
 190:main.c        **** #ifdef CTPB
 191:main.c        ****       __SPM_REG=(_BV(CTPB)|_BV(__SPM_ENABLE));
 192:main.c        **** #else
 193:main.c        ****   #ifdef RWWSRE
 194:main.c        ****       __SPM_REG=(_BV(RWWSRE)|_BV(__SPM_ENABLE));
 195:main.c        ****   #else    
 196:main.c        ****       __SPM_REG=_BV(__SPM_ENABLE);
 197:main.c        ****   #endif
 198:main.c        **** #endif
 199:main.c        ****       asm volatile("spm");
 200:main.c        ****       
 201:main.c        ****     }        
 202:main.c        ****   } else if (rq->bRequest == cmd_write_data) { // Write data
 203:main.c        ****     writeWordToPageBuffer(rq->wValue.word);
 204:main.c        ****     writeWordToPageBuffer(rq->wIndex.word);
 205:main.c        ****     if ((currentAddress.b[0] % SPM_PAGESIZE) == 0)
 206:main.c        ****       command=cmd_write_page; // ask runloop to write our page       
 207:main.c        ****   } else {
 208:main.c        ****     // Handle cmd_erase_application and cmd_exit
 209:main.c        ****     command=rq->bRequest&0x3f;    
 210:main.c        ****   }
 211:main.c        ****   return 0;
 212:main.c        **** }
 213:main.c        **** 
 214:main.c        **** static void initHardware (void)
 215:main.c        **** {
  68               		.loc 1 215 0
  69               		.cfi_startproc
GAS LISTING C:\Users\thouli\AppData\Local\Temp\cc8sA0gt.s 			page 6


  70               	/* prologue: function */
  71               	/* frame size = 0 */
  72               	/* stack size = 0 */
  73               	.L__stack_usage = 0
 216:main.c        ****   // Disable watchdog and set timeout to maximum in case the WDT is fused on 
 217:main.c        **** #ifdef CCP
 218:main.c        ****   // New ATtinies841/441 use a different unlock sequence and renamed registers
 219:main.c        ****   MCUSR=0;    
 220:main.c        ****   CCP = 0xD8; 
 221:main.c        ****   WDTCSR = 1<<WDP2 | 1<<WDP1 | 1<<WDP0; 
 222:main.c        **** #elif defined(WDTCR)
 223:main.c        ****   MCUSR=0;    
  74               		.loc 1 223 0
  75 0000 14BE      		out 0x34,__zero_reg__
 224:main.c        ****   WDTCR = 1<<WDCE | 1<<WDE;
  76               		.loc 1 224 0
  77 0002 88E1      		ldi r24,lo8(24)
  78 0004 81BD      		out 0x21,r24
 225:main.c        ****   WDTCR = 1<<WDP2 | 1<<WDP1 | 1<<WDP0;
  79               		.loc 1 225 0
  80 0006 87E0      		ldi r24,lo8(7)
  81 0008 81BD      		out 0x21,r24
 226:main.c        **** #else
 227:main.c        ****   wdt_reset();
 228:main.c        ****   MCUSR=0;
 229:main.c        ****   WDTCSR|=_BV(WDCE) | _BV(WDE);
 230:main.c        ****   WDTCSR=0;
 231:main.c        **** #endif
 232:main.c        ****   
 233:main.c        ****   usbDeviceDisconnect();  /* do this while interrupts are disabled */
  82               		.loc 1 233 0
  83 000a BB9A      		sbi 0x17,3
  84               	.LVL5:
  85               	.LBB30:
  86               	.LBB31:
  87               		.file 2 "c:\\program files (x86)\\atmel\\studio\\7.0\\toolchain\\avr8\\avr8-gnu-toolchain\\avr\\in
   1:c:\program files (x86)\atmel\studio\7.0\toolchain\avr8\avr8-gnu-toolchain\avr\include\util\delay.h **** /* Copyright (c) 2002, Marek Michalkiewicz
   2:c:\program files (x86)\atmel\studio\7.0\toolchain\avr8\avr8-gnu-toolchain\avr\include\util\delay.h ****    Copyright (c) 2004,2005,2007 Joerg Wunsch
   3:c:\program files (x86)\atmel\studio\7.0\toolchain\avr8\avr8-gnu-toolchain\avr\include\util\delay.h ****    Copyright (c) 2007  Florin-Viorel Petrov
   4:c:\program files (x86)\atmel\studio\7.0\toolchain\avr8\avr8-gnu-toolchain\avr\include\util\delay.h ****    All rights reserved.
   5:c:\program files (x86)\atmel\studio\7.0\toolchain\avr8\avr8-gnu-toolchain\avr\include\util\delay.h **** 
   6:c:\program files (x86)\atmel\studio\7.0\toolchain\avr8\avr8-gnu-toolchain\avr\include\util\delay.h ****    Redistribution and use in source and binary forms, with or without
   7:c:\program files (x86)\atmel\studio\7.0\toolchain\avr8\avr8-gnu-toolchain\avr\include\util\delay.h ****    modification, are permitted provided that the following conditions are met:
   8:c:\program files (x86)\atmel\studio\7.0\toolchain\avr8\avr8-gnu-toolchain\avr\include\util\delay.h **** 
   9:c:\program files (x86)\atmel\studio\7.0\toolchain\avr8\avr8-gnu-toolchain\avr\include\util\delay.h ****    * Redistributions of source code must retain the above copyright
  10:c:\program files (x86)\atmel\studio\7.0\toolchain\avr8\avr8-gnu-toolchain\avr\include\util\delay.h ****      notice, this list of conditions and the following disclaimer.
  11:c:\program files (x86)\atmel\studio\7.0\toolchain\avr8\avr8-gnu-toolchain\avr\include\util\delay.h **** 
  12:c:\program files (x86)\atmel\studio\7.0\toolchain\avr8\avr8-gnu-toolchain\avr\include\util\delay.h ****    * Redistributions in binary form must reproduce the above copyright
  13:c:\program files (x86)\atmel\studio\7.0\toolchain\avr8\avr8-gnu-toolchain\avr\include\util\delay.h ****      notice, this list of conditions and the following disclaimer in
  14:c:\program files (x86)\atmel\studio\7.0\toolchain\avr8\avr8-gnu-toolchain\avr\include\util\delay.h ****      the documentation and/or other materials provided with the
  15:c:\program files (x86)\atmel\studio\7.0\toolchain\avr8\avr8-gnu-toolchain\avr\include\util\delay.h ****      distribution.
  16:c:\program files (x86)\atmel\studio\7.0\toolchain\avr8\avr8-gnu-toolchain\avr\include\util\delay.h **** 
  17:c:\program files (x86)\atmel\studio\7.0\toolchain\avr8\avr8-gnu-toolchain\avr\include\util\delay.h ****    * Neither the name of the copyright holders nor the names of
  18:c:\program files (x86)\atmel\studio\7.0\toolchain\avr8\avr8-gnu-toolchain\avr\include\util\delay.h ****      contributors may be used to endorse or promote products derived
  19:c:\program files (x86)\atmel\studio\7.0\toolchain\avr8\avr8-gnu-toolchain\avr\include\util\delay.h ****      from this software without specific prior written permission.
  20:c:\program files (x86)\atmel\studio\7.0\toolchain\avr8\avr8-gnu-toolchain\avr\include\util\delay.h **** 
  21:c:\program files (x86)\atmel\studio\7.0\toolchain\avr8\avr8-gnu-toolchain\avr\include\util\delay.h ****   THIS SOFTWARE IS PROVIDED BY THE COPYRIGHT HOLDERS AND CONTRIBUTORS "AS IS"
GAS LISTING C:\Users\thouli\AppData\Local\Temp\cc8sA0gt.s 			page 7


  22:c:\program files (x86)\atmel\studio\7.0\toolchain\avr8\avr8-gnu-toolchain\avr\include\util\delay.h ****   AND ANY EXPRESS OR IMPLIED WARRANTIES, INCLUDING, BUT NOT LIMITED TO, THE
  23:c:\program files (x86)\atmel\studio\7.0\toolchain\avr8\avr8-gnu-toolchain\avr\include\util\delay.h ****   IMPLIED WARRANTIES OF MERCHANTABILITY AND FITNESS FOR A PARTICULAR PURPOSE
  24:c:\program files (x86)\atmel\studio\7.0\toolchain\avr8\avr8-gnu-toolchain\avr\include\util\delay.h ****   ARE DISCLAIMED. IN NO EVENT SHALL THE COPYRIGHT OWNER OR CONTRIBUTORS BE
  25:c:\program files (x86)\atmel\studio\7.0\toolchain\avr8\avr8-gnu-toolchain\avr\include\util\delay.h ****   LIABLE FOR ANY DIRECT, INDIRECT, INCIDENTAL, SPECIAL, EXEMPLARY, OR
  26:c:\program files (x86)\atmel\studio\7.0\toolchain\avr8\avr8-gnu-toolchain\avr\include\util\delay.h ****   CONSEQUENTIAL DAMAGES (INCLUDING, BUT NOT LIMITED TO, PROCUREMENT OF
  27:c:\program files (x86)\atmel\studio\7.0\toolchain\avr8\avr8-gnu-toolchain\avr\include\util\delay.h ****   SUBSTITUTE GOODS OR SERVICES; LOSS OF USE, DATA, OR PROFITS; OR BUSINESS
  28:c:\program files (x86)\atmel\studio\7.0\toolchain\avr8\avr8-gnu-toolchain\avr\include\util\delay.h ****   INTERRUPTION) HOWEVER CAUSED AND ON ANY THEORY OF LIABILITY, WHETHER IN
  29:c:\program files (x86)\atmel\studio\7.0\toolchain\avr8\avr8-gnu-toolchain\avr\include\util\delay.h ****   CONTRACT, STRICT LIABILITY, OR TORT (INCLUDING NEGLIGENCE OR OTHERWISE)
  30:c:\program files (x86)\atmel\studio\7.0\toolchain\avr8\avr8-gnu-toolchain\avr\include\util\delay.h ****   ARISING IN ANY WAY OUT OF THE USE OF THIS SOFTWARE, EVEN IF ADVISED OF THE
  31:c:\program files (x86)\atmel\studio\7.0\toolchain\avr8\avr8-gnu-toolchain\avr\include\util\delay.h ****   POSSIBILITY OF SUCH DAMAGE. */
  32:c:\program files (x86)\atmel\studio\7.0\toolchain\avr8\avr8-gnu-toolchain\avr\include\util\delay.h **** 
  33:c:\program files (x86)\atmel\studio\7.0\toolchain\avr8\avr8-gnu-toolchain\avr\include\util\delay.h **** /* $Id$ */
  34:c:\program files (x86)\atmel\studio\7.0\toolchain\avr8\avr8-gnu-toolchain\avr\include\util\delay.h **** 
  35:c:\program files (x86)\atmel\studio\7.0\toolchain\avr8\avr8-gnu-toolchain\avr\include\util\delay.h **** #ifndef _UTIL_DELAY_H_
  36:c:\program files (x86)\atmel\studio\7.0\toolchain\avr8\avr8-gnu-toolchain\avr\include\util\delay.h **** #define _UTIL_DELAY_H_ 1
  37:c:\program files (x86)\atmel\studio\7.0\toolchain\avr8\avr8-gnu-toolchain\avr\include\util\delay.h **** 
  38:c:\program files (x86)\atmel\studio\7.0\toolchain\avr8\avr8-gnu-toolchain\avr\include\util\delay.h **** #ifndef __DOXYGEN__
  39:c:\program files (x86)\atmel\studio\7.0\toolchain\avr8\avr8-gnu-toolchain\avr\include\util\delay.h **** #  ifndef __HAS_DELAY_CYCLES
  40:c:\program files (x86)\atmel\studio\7.0\toolchain\avr8\avr8-gnu-toolchain\avr\include\util\delay.h **** #    define __HAS_DELAY_CYCLES 1
  41:c:\program files (x86)\atmel\studio\7.0\toolchain\avr8\avr8-gnu-toolchain\avr\include\util\delay.h **** #  endif
  42:c:\program files (x86)\atmel\studio\7.0\toolchain\avr8\avr8-gnu-toolchain\avr\include\util\delay.h **** #endif  /* __DOXYGEN__ */
  43:c:\program files (x86)\atmel\studio\7.0\toolchain\avr8\avr8-gnu-toolchain\avr\include\util\delay.h **** 
  44:c:\program files (x86)\atmel\studio\7.0\toolchain\avr8\avr8-gnu-toolchain\avr\include\util\delay.h **** #include <inttypes.h>
  45:c:\program files (x86)\atmel\studio\7.0\toolchain\avr8\avr8-gnu-toolchain\avr\include\util\delay.h **** #include <util/delay_basic.h>
  46:c:\program files (x86)\atmel\studio\7.0\toolchain\avr8\avr8-gnu-toolchain\avr\include\util\delay.h **** #include <math.h>
  47:c:\program files (x86)\atmel\studio\7.0\toolchain\avr8\avr8-gnu-toolchain\avr\include\util\delay.h **** 
  48:c:\program files (x86)\atmel\studio\7.0\toolchain\avr8\avr8-gnu-toolchain\avr\include\util\delay.h **** /** \file */
  49:c:\program files (x86)\atmel\studio\7.0\toolchain\avr8\avr8-gnu-toolchain\avr\include\util\delay.h **** /** \defgroup util_delay <util/delay.h>: Convenience functions for busy-wait delay loops
  50:c:\program files (x86)\atmel\studio\7.0\toolchain\avr8\avr8-gnu-toolchain\avr\include\util\delay.h ****     \code
  51:c:\program files (x86)\atmel\studio\7.0\toolchain\avr8\avr8-gnu-toolchain\avr\include\util\delay.h ****     #define F_CPU 1000000UL  // 1 MHz
  52:c:\program files (x86)\atmel\studio\7.0\toolchain\avr8\avr8-gnu-toolchain\avr\include\util\delay.h ****     //#define F_CPU 14.7456E6
  53:c:\program files (x86)\atmel\studio\7.0\toolchain\avr8\avr8-gnu-toolchain\avr\include\util\delay.h ****     #include <util/delay.h>
  54:c:\program files (x86)\atmel\studio\7.0\toolchain\avr8\avr8-gnu-toolchain\avr\include\util\delay.h ****     \endcode
  55:c:\program files (x86)\atmel\studio\7.0\toolchain\avr8\avr8-gnu-toolchain\avr\include\util\delay.h **** 
  56:c:\program files (x86)\atmel\studio\7.0\toolchain\avr8\avr8-gnu-toolchain\avr\include\util\delay.h ****     \note As an alternative method, it is possible to pass the
  57:c:\program files (x86)\atmel\studio\7.0\toolchain\avr8\avr8-gnu-toolchain\avr\include\util\delay.h ****     F_CPU macro down to the compiler from the Makefile.
  58:c:\program files (x86)\atmel\studio\7.0\toolchain\avr8\avr8-gnu-toolchain\avr\include\util\delay.h ****     Obviously, in that case, no \c \#define statement should be
  59:c:\program files (x86)\atmel\studio\7.0\toolchain\avr8\avr8-gnu-toolchain\avr\include\util\delay.h ****     used.
  60:c:\program files (x86)\atmel\studio\7.0\toolchain\avr8\avr8-gnu-toolchain\avr\include\util\delay.h **** 
  61:c:\program files (x86)\atmel\studio\7.0\toolchain\avr8\avr8-gnu-toolchain\avr\include\util\delay.h ****     The functions in this header file are wrappers around the basic
  62:c:\program files (x86)\atmel\studio\7.0\toolchain\avr8\avr8-gnu-toolchain\avr\include\util\delay.h ****     busy-wait functions from <util/delay_basic.h>.  They are meant as
  63:c:\program files (x86)\atmel\studio\7.0\toolchain\avr8\avr8-gnu-toolchain\avr\include\util\delay.h ****     convenience functions where actual time values can be specified
  64:c:\program files (x86)\atmel\studio\7.0\toolchain\avr8\avr8-gnu-toolchain\avr\include\util\delay.h ****     rather than a number of cycles to wait for.  The idea behind is
  65:c:\program files (x86)\atmel\studio\7.0\toolchain\avr8\avr8-gnu-toolchain\avr\include\util\delay.h ****     that compile-time constant expressions will be eliminated by
  66:c:\program files (x86)\atmel\studio\7.0\toolchain\avr8\avr8-gnu-toolchain\avr\include\util\delay.h ****     compiler optimization so floating-point expressions can be used
  67:c:\program files (x86)\atmel\studio\7.0\toolchain\avr8\avr8-gnu-toolchain\avr\include\util\delay.h ****     to calculate the number of delay cycles needed based on the CPU
  68:c:\program files (x86)\atmel\studio\7.0\toolchain\avr8\avr8-gnu-toolchain\avr\include\util\delay.h ****     frequency passed by the macro F_CPU.
  69:c:\program files (x86)\atmel\studio\7.0\toolchain\avr8\avr8-gnu-toolchain\avr\include\util\delay.h **** 
  70:c:\program files (x86)\atmel\studio\7.0\toolchain\avr8\avr8-gnu-toolchain\avr\include\util\delay.h ****     \note In order for these functions to work as intended, compiler
  71:c:\program files (x86)\atmel\studio\7.0\toolchain\avr8\avr8-gnu-toolchain\avr\include\util\delay.h ****     optimizations <em>must</em> be enabled, and the delay time
  72:c:\program files (x86)\atmel\studio\7.0\toolchain\avr8\avr8-gnu-toolchain\avr\include\util\delay.h ****     <em>must</em> be an expression that is a known constant at
  73:c:\program files (x86)\atmel\studio\7.0\toolchain\avr8\avr8-gnu-toolchain\avr\include\util\delay.h ****     compile-time.  If these requirements are not met, the resulting
  74:c:\program files (x86)\atmel\studio\7.0\toolchain\avr8\avr8-gnu-toolchain\avr\include\util\delay.h ****     delay will be much longer (and basically unpredictable), and
  75:c:\program files (x86)\atmel\studio\7.0\toolchain\avr8\avr8-gnu-toolchain\avr\include\util\delay.h ****     applications that otherwise do not use floating-point calculations
  76:c:\program files (x86)\atmel\studio\7.0\toolchain\avr8\avr8-gnu-toolchain\avr\include\util\delay.h ****     will experience severe code bloat by the floating-point library
  77:c:\program files (x86)\atmel\studio\7.0\toolchain\avr8\avr8-gnu-toolchain\avr\include\util\delay.h ****     routines linked into the application.
  78:c:\program files (x86)\atmel\studio\7.0\toolchain\avr8\avr8-gnu-toolchain\avr\include\util\delay.h **** 
GAS LISTING C:\Users\thouli\AppData\Local\Temp\cc8sA0gt.s 			page 8


  79:c:\program files (x86)\atmel\studio\7.0\toolchain\avr8\avr8-gnu-toolchain\avr\include\util\delay.h ****     The functions available allow the specification of microsecond, and
  80:c:\program files (x86)\atmel\studio\7.0\toolchain\avr8\avr8-gnu-toolchain\avr\include\util\delay.h ****     millisecond delays directly, using the application-supplied macro
  81:c:\program files (x86)\atmel\studio\7.0\toolchain\avr8\avr8-gnu-toolchain\avr\include\util\delay.h ****     F_CPU as the CPU clock frequency (in Hertz).
  82:c:\program files (x86)\atmel\studio\7.0\toolchain\avr8\avr8-gnu-toolchain\avr\include\util\delay.h **** 
  83:c:\program files (x86)\atmel\studio\7.0\toolchain\avr8\avr8-gnu-toolchain\avr\include\util\delay.h **** */
  84:c:\program files (x86)\atmel\studio\7.0\toolchain\avr8\avr8-gnu-toolchain\avr\include\util\delay.h **** 
  85:c:\program files (x86)\atmel\studio\7.0\toolchain\avr8\avr8-gnu-toolchain\avr\include\util\delay.h **** #if !defined(__DOXYGEN__)
  86:c:\program files (x86)\atmel\studio\7.0\toolchain\avr8\avr8-gnu-toolchain\avr\include\util\delay.h **** static __inline__ void _delay_us(double __us) __attribute__((__always_inline__));
  87:c:\program files (x86)\atmel\studio\7.0\toolchain\avr8\avr8-gnu-toolchain\avr\include\util\delay.h **** static __inline__ void _delay_ms(double __ms) __attribute__((__always_inline__));
  88:c:\program files (x86)\atmel\studio\7.0\toolchain\avr8\avr8-gnu-toolchain\avr\include\util\delay.h **** #endif
  89:c:\program files (x86)\atmel\studio\7.0\toolchain\avr8\avr8-gnu-toolchain\avr\include\util\delay.h **** 
  90:c:\program files (x86)\atmel\studio\7.0\toolchain\avr8\avr8-gnu-toolchain\avr\include\util\delay.h **** #ifndef F_CPU
  91:c:\program files (x86)\atmel\studio\7.0\toolchain\avr8\avr8-gnu-toolchain\avr\include\util\delay.h **** /* prevent compiler error by supplying a default */
  92:c:\program files (x86)\atmel\studio\7.0\toolchain\avr8\avr8-gnu-toolchain\avr\include\util\delay.h **** # warning "F_CPU not defined for <util/delay.h>"
  93:c:\program files (x86)\atmel\studio\7.0\toolchain\avr8\avr8-gnu-toolchain\avr\include\util\delay.h **** /** \ingroup util_delay
  94:c:\program files (x86)\atmel\studio\7.0\toolchain\avr8\avr8-gnu-toolchain\avr\include\util\delay.h ****     \def F_CPU
  95:c:\program files (x86)\atmel\studio\7.0\toolchain\avr8\avr8-gnu-toolchain\avr\include\util\delay.h ****     \brief CPU frequency in Hz
  96:c:\program files (x86)\atmel\studio\7.0\toolchain\avr8\avr8-gnu-toolchain\avr\include\util\delay.h **** 
  97:c:\program files (x86)\atmel\studio\7.0\toolchain\avr8\avr8-gnu-toolchain\avr\include\util\delay.h ****     The macro F_CPU specifies the CPU frequency to be considered by
  98:c:\program files (x86)\atmel\studio\7.0\toolchain\avr8\avr8-gnu-toolchain\avr\include\util\delay.h ****     the delay macros.  This macro is normally supplied by the
  99:c:\program files (x86)\atmel\studio\7.0\toolchain\avr8\avr8-gnu-toolchain\avr\include\util\delay.h ****     environment (e.g. from within a project header, or the project's
 100:c:\program files (x86)\atmel\studio\7.0\toolchain\avr8\avr8-gnu-toolchain\avr\include\util\delay.h ****     Makefile).  The value 1 MHz here is only provided as a "vanilla"
 101:c:\program files (x86)\atmel\studio\7.0\toolchain\avr8\avr8-gnu-toolchain\avr\include\util\delay.h ****     fallback if no such user-provided definition could be found.
 102:c:\program files (x86)\atmel\studio\7.0\toolchain\avr8\avr8-gnu-toolchain\avr\include\util\delay.h **** 
 103:c:\program files (x86)\atmel\studio\7.0\toolchain\avr8\avr8-gnu-toolchain\avr\include\util\delay.h ****     In terms of the delay functions, the CPU frequency can be given as
 104:c:\program files (x86)\atmel\studio\7.0\toolchain\avr8\avr8-gnu-toolchain\avr\include\util\delay.h ****     a floating-point constant (e.g. 3.6864E6 for 3.6864 MHz).
 105:c:\program files (x86)\atmel\studio\7.0\toolchain\avr8\avr8-gnu-toolchain\avr\include\util\delay.h ****     However, the macros in <util/setbaud.h> require it to be an
 106:c:\program files (x86)\atmel\studio\7.0\toolchain\avr8\avr8-gnu-toolchain\avr\include\util\delay.h ****     integer value.
 107:c:\program files (x86)\atmel\studio\7.0\toolchain\avr8\avr8-gnu-toolchain\avr\include\util\delay.h ****  */
 108:c:\program files (x86)\atmel\studio\7.0\toolchain\avr8\avr8-gnu-toolchain\avr\include\util\delay.h **** # define F_CPU 1000000UL
 109:c:\program files (x86)\atmel\studio\7.0\toolchain\avr8\avr8-gnu-toolchain\avr\include\util\delay.h **** #endif
 110:c:\program files (x86)\atmel\studio\7.0\toolchain\avr8\avr8-gnu-toolchain\avr\include\util\delay.h **** 
 111:c:\program files (x86)\atmel\studio\7.0\toolchain\avr8\avr8-gnu-toolchain\avr\include\util\delay.h **** #ifndef __OPTIMIZE__
 112:c:\program files (x86)\atmel\studio\7.0\toolchain\avr8\avr8-gnu-toolchain\avr\include\util\delay.h **** # warning "Compiler optimizations disabled; functions from <util/delay.h> won't work as designed"
 113:c:\program files (x86)\atmel\studio\7.0\toolchain\avr8\avr8-gnu-toolchain\avr\include\util\delay.h **** #endif
 114:c:\program files (x86)\atmel\studio\7.0\toolchain\avr8\avr8-gnu-toolchain\avr\include\util\delay.h **** 
 115:c:\program files (x86)\atmel\studio\7.0\toolchain\avr8\avr8-gnu-toolchain\avr\include\util\delay.h **** #if __HAS_DELAY_CYCLES && defined(__OPTIMIZE__) && \
 116:c:\program files (x86)\atmel\studio\7.0\toolchain\avr8\avr8-gnu-toolchain\avr\include\util\delay.h ****   !defined(__DELAY_BACKWARD_COMPATIBLE__) &&	   \
 117:c:\program files (x86)\atmel\studio\7.0\toolchain\avr8\avr8-gnu-toolchain\avr\include\util\delay.h ****   __STDC_HOSTED__
 118:c:\program files (x86)\atmel\studio\7.0\toolchain\avr8\avr8-gnu-toolchain\avr\include\util\delay.h **** #  include <math.h>
 119:c:\program files (x86)\atmel\studio\7.0\toolchain\avr8\avr8-gnu-toolchain\avr\include\util\delay.h **** #endif
 120:c:\program files (x86)\atmel\studio\7.0\toolchain\avr8\avr8-gnu-toolchain\avr\include\util\delay.h **** 
 121:c:\program files (x86)\atmel\studio\7.0\toolchain\avr8\avr8-gnu-toolchain\avr\include\util\delay.h **** /**
 122:c:\program files (x86)\atmel\studio\7.0\toolchain\avr8\avr8-gnu-toolchain\avr\include\util\delay.h ****    \ingroup util_delay
 123:c:\program files (x86)\atmel\studio\7.0\toolchain\avr8\avr8-gnu-toolchain\avr\include\util\delay.h **** 
 124:c:\program files (x86)\atmel\studio\7.0\toolchain\avr8\avr8-gnu-toolchain\avr\include\util\delay.h ****    Perform a delay of \c __ms milliseconds, using _delay_loop_2().
 125:c:\program files (x86)\atmel\studio\7.0\toolchain\avr8\avr8-gnu-toolchain\avr\include\util\delay.h **** 
 126:c:\program files (x86)\atmel\studio\7.0\toolchain\avr8\avr8-gnu-toolchain\avr\include\util\delay.h ****    The macro F_CPU is supposed to be defined to a
 127:c:\program files (x86)\atmel\studio\7.0\toolchain\avr8\avr8-gnu-toolchain\avr\include\util\delay.h ****    constant defining the CPU clock frequency (in Hertz).
 128:c:\program files (x86)\atmel\studio\7.0\toolchain\avr8\avr8-gnu-toolchain\avr\include\util\delay.h **** 
 129:c:\program files (x86)\atmel\studio\7.0\toolchain\avr8\avr8-gnu-toolchain\avr\include\util\delay.h ****    The maximal possible delay is 262.14 ms / F_CPU in MHz.
 130:c:\program files (x86)\atmel\studio\7.0\toolchain\avr8\avr8-gnu-toolchain\avr\include\util\delay.h **** 
 131:c:\program files (x86)\atmel\studio\7.0\toolchain\avr8\avr8-gnu-toolchain\avr\include\util\delay.h ****    When the user request delay which exceed the maximum possible one,
 132:c:\program files (x86)\atmel\studio\7.0\toolchain\avr8\avr8-gnu-toolchain\avr\include\util\delay.h ****    _delay_ms() provides a decreased resolution functionality. In this
 133:c:\program files (x86)\atmel\studio\7.0\toolchain\avr8\avr8-gnu-toolchain\avr\include\util\delay.h ****    mode _delay_ms() will work with a resolution of 1/10 ms, providing
 134:c:\program files (x86)\atmel\studio\7.0\toolchain\avr8\avr8-gnu-toolchain\avr\include\util\delay.h ****    delays up to 6.5535 seconds (independent from CPU frequency).  The
 135:c:\program files (x86)\atmel\studio\7.0\toolchain\avr8\avr8-gnu-toolchain\avr\include\util\delay.h ****    user will not be informed about decreased resolution.
GAS LISTING C:\Users\thouli\AppData\Local\Temp\cc8sA0gt.s 			page 9


 136:c:\program files (x86)\atmel\studio\7.0\toolchain\avr8\avr8-gnu-toolchain\avr\include\util\delay.h **** 
 137:c:\program files (x86)\atmel\studio\7.0\toolchain\avr8\avr8-gnu-toolchain\avr\include\util\delay.h ****    If the avr-gcc toolchain has __builtin_avr_delay_cycles()
 138:c:\program files (x86)\atmel\studio\7.0\toolchain\avr8\avr8-gnu-toolchain\avr\include\util\delay.h ****    support, maximal possible delay is 4294967.295 ms/ F_CPU in MHz. For
 139:c:\program files (x86)\atmel\studio\7.0\toolchain\avr8\avr8-gnu-toolchain\avr\include\util\delay.h ****    values greater than the maximal possible delay, overflows results in
 140:c:\program files (x86)\atmel\studio\7.0\toolchain\avr8\avr8-gnu-toolchain\avr\include\util\delay.h ****    no delay i.e., 0ms.
 141:c:\program files (x86)\atmel\studio\7.0\toolchain\avr8\avr8-gnu-toolchain\avr\include\util\delay.h **** 
 142:c:\program files (x86)\atmel\studio\7.0\toolchain\avr8\avr8-gnu-toolchain\avr\include\util\delay.h ****    Conversion of \c __ms into clock cycles may not always result in
 143:c:\program files (x86)\atmel\studio\7.0\toolchain\avr8\avr8-gnu-toolchain\avr\include\util\delay.h ****    integer.  By default, the clock cycles rounded up to next
 144:c:\program files (x86)\atmel\studio\7.0\toolchain\avr8\avr8-gnu-toolchain\avr\include\util\delay.h ****    integer. This ensures that the user gets at least \c __ms
 145:c:\program files (x86)\atmel\studio\7.0\toolchain\avr8\avr8-gnu-toolchain\avr\include\util\delay.h ****    microseconds of delay.
 146:c:\program files (x86)\atmel\studio\7.0\toolchain\avr8\avr8-gnu-toolchain\avr\include\util\delay.h **** 
 147:c:\program files (x86)\atmel\studio\7.0\toolchain\avr8\avr8-gnu-toolchain\avr\include\util\delay.h ****    Alternatively, by defining the macro \c __DELAY_ROUND_DOWN__, or
 148:c:\program files (x86)\atmel\studio\7.0\toolchain\avr8\avr8-gnu-toolchain\avr\include\util\delay.h ****    \c __DELAY_ROUND_CLOSEST__, before including this header file, the
 149:c:\program files (x86)\atmel\studio\7.0\toolchain\avr8\avr8-gnu-toolchain\avr\include\util\delay.h ****    algorithm can be made to round down, or round to closest integer,
 150:c:\program files (x86)\atmel\studio\7.0\toolchain\avr8\avr8-gnu-toolchain\avr\include\util\delay.h ****    respectively.
 151:c:\program files (x86)\atmel\studio\7.0\toolchain\avr8\avr8-gnu-toolchain\avr\include\util\delay.h **** 
 152:c:\program files (x86)\atmel\studio\7.0\toolchain\avr8\avr8-gnu-toolchain\avr\include\util\delay.h ****    \note
 153:c:\program files (x86)\atmel\studio\7.0\toolchain\avr8\avr8-gnu-toolchain\avr\include\util\delay.h **** 
 154:c:\program files (x86)\atmel\studio\7.0\toolchain\avr8\avr8-gnu-toolchain\avr\include\util\delay.h ****    The implementation of _delay_ms() based on
 155:c:\program files (x86)\atmel\studio\7.0\toolchain\avr8\avr8-gnu-toolchain\avr\include\util\delay.h ****    __builtin_avr_delay_cycles() is not backward compatible with older
 156:c:\program files (x86)\atmel\studio\7.0\toolchain\avr8\avr8-gnu-toolchain\avr\include\util\delay.h ****    implementations.  In order to get functionality backward compatible
 157:c:\program files (x86)\atmel\studio\7.0\toolchain\avr8\avr8-gnu-toolchain\avr\include\util\delay.h ****    with previous versions, the macro \c "__DELAY_BACKWARD_COMPATIBLE__"
 158:c:\program files (x86)\atmel\studio\7.0\toolchain\avr8\avr8-gnu-toolchain\avr\include\util\delay.h ****    must be defined before including this header file. Also, the
 159:c:\program files (x86)\atmel\studio\7.0\toolchain\avr8\avr8-gnu-toolchain\avr\include\util\delay.h ****    backward compatible algorithm will be chosen if the code is
 160:c:\program files (x86)\atmel\studio\7.0\toolchain\avr8\avr8-gnu-toolchain\avr\include\util\delay.h ****    compiled in a <em>freestanding environment</em> (GCC option
 161:c:\program files (x86)\atmel\studio\7.0\toolchain\avr8\avr8-gnu-toolchain\avr\include\util\delay.h ****    \c -ffreestanding), as the math functions required for rounding are
 162:c:\program files (x86)\atmel\studio\7.0\toolchain\avr8\avr8-gnu-toolchain\avr\include\util\delay.h ****    not available to the compiler then.
 163:c:\program files (x86)\atmel\studio\7.0\toolchain\avr8\avr8-gnu-toolchain\avr\include\util\delay.h **** 
 164:c:\program files (x86)\atmel\studio\7.0\toolchain\avr8\avr8-gnu-toolchain\avr\include\util\delay.h ****  */
 165:c:\program files (x86)\atmel\studio\7.0\toolchain\avr8\avr8-gnu-toolchain\avr\include\util\delay.h **** void
 166:c:\program files (x86)\atmel\studio\7.0\toolchain\avr8\avr8-gnu-toolchain\avr\include\util\delay.h **** _delay_ms(double __ms)
 167:c:\program files (x86)\atmel\studio\7.0\toolchain\avr8\avr8-gnu-toolchain\avr\include\util\delay.h **** {
 168:c:\program files (x86)\atmel\studio\7.0\toolchain\avr8\avr8-gnu-toolchain\avr\include\util\delay.h **** 	double __tmp ;
 169:c:\program files (x86)\atmel\studio\7.0\toolchain\avr8\avr8-gnu-toolchain\avr\include\util\delay.h **** #if __HAS_DELAY_CYCLES && defined(__OPTIMIZE__) && \
 170:c:\program files (x86)\atmel\studio\7.0\toolchain\avr8\avr8-gnu-toolchain\avr\include\util\delay.h ****   !defined(__DELAY_BACKWARD_COMPATIBLE__) &&	   \
 171:c:\program files (x86)\atmel\studio\7.0\toolchain\avr8\avr8-gnu-toolchain\avr\include\util\delay.h ****   __STDC_HOSTED__
 172:c:\program files (x86)\atmel\studio\7.0\toolchain\avr8\avr8-gnu-toolchain\avr\include\util\delay.h **** 	uint32_t __ticks_dc;
 173:c:\program files (x86)\atmel\studio\7.0\toolchain\avr8\avr8-gnu-toolchain\avr\include\util\delay.h **** 	extern void __builtin_avr_delay_cycles(unsigned long);
 174:c:\program files (x86)\atmel\studio\7.0\toolchain\avr8\avr8-gnu-toolchain\avr\include\util\delay.h **** 	__tmp = ((F_CPU) / 1e3) * __ms;
 175:c:\program files (x86)\atmel\studio\7.0\toolchain\avr8\avr8-gnu-toolchain\avr\include\util\delay.h **** 
 176:c:\program files (x86)\atmel\studio\7.0\toolchain\avr8\avr8-gnu-toolchain\avr\include\util\delay.h **** 	#if defined(__DELAY_ROUND_DOWN__)
 177:c:\program files (x86)\atmel\studio\7.0\toolchain\avr8\avr8-gnu-toolchain\avr\include\util\delay.h **** 		__ticks_dc = (uint32_t)fabs(__tmp);
 178:c:\program files (x86)\atmel\studio\7.0\toolchain\avr8\avr8-gnu-toolchain\avr\include\util\delay.h **** 
 179:c:\program files (x86)\atmel\studio\7.0\toolchain\avr8\avr8-gnu-toolchain\avr\include\util\delay.h **** 	#elif defined(__DELAY_ROUND_CLOSEST__)
 180:c:\program files (x86)\atmel\studio\7.0\toolchain\avr8\avr8-gnu-toolchain\avr\include\util\delay.h **** 		__ticks_dc = (uint32_t)(fabs(__tmp)+0.5);
 181:c:\program files (x86)\atmel\studio\7.0\toolchain\avr8\avr8-gnu-toolchain\avr\include\util\delay.h **** 
 182:c:\program files (x86)\atmel\studio\7.0\toolchain\avr8\avr8-gnu-toolchain\avr\include\util\delay.h **** 	#else
 183:c:\program files (x86)\atmel\studio\7.0\toolchain\avr8\avr8-gnu-toolchain\avr\include\util\delay.h **** 		//round up by default
 184:c:\program files (x86)\atmel\studio\7.0\toolchain\avr8\avr8-gnu-toolchain\avr\include\util\delay.h **** 		__ticks_dc = (uint32_t)(ceil(fabs(__tmp)));
 185:c:\program files (x86)\atmel\studio\7.0\toolchain\avr8\avr8-gnu-toolchain\avr\include\util\delay.h **** 	#endif
 186:c:\program files (x86)\atmel\studio\7.0\toolchain\avr8\avr8-gnu-toolchain\avr\include\util\delay.h **** 
 187:c:\program files (x86)\atmel\studio\7.0\toolchain\avr8\avr8-gnu-toolchain\avr\include\util\delay.h **** 	__builtin_avr_delay_cycles(__ticks_dc);
  88               		.loc 2 187 0
  89 000c 2FE2      		ldi r18,lo8(989999)
  90 000e 8BE1      		ldi r24,hi8(989999)
  91 0010 9FE0      		ldi r25,hlo8(989999)
  92 0012 2150      	1:	subi r18,1
GAS LISTING C:\Users\thouli\AppData\Local\Temp\cc8sA0gt.s 			page 10


  93 0014 8040      		sbci r24,0
  94 0016 9040      		sbci r25,0
  95 0018 01F4      		brne 1b
  96 001a 00C0      		rjmp .
  97 001c 0000      		nop
  98               	.LVL6:
  99               	.LBE31:
 100               	.LBE30:
 234:main.c        ****   _delay_ms(300);  
 235:main.c        ****   usbDeviceConnect();
 101               		.loc 1 235 0
 102 001e BB98      		cbi 0x17,3
 103               	.LBB32:
 104               	.LBB33:
 105               		.file 3 "usbdrv/usbdrv.c"
   1:usbdrv/usbdrv.c **** /* Name: usbdrv.c
   2:usbdrv/usbdrv.c ****  * Project: V-USB, virtual USB port for Atmel's(r) AVR(r) microcontrollers
   3:usbdrv/usbdrv.c ****  * Author: Christian Starkjohann
   4:usbdrv/usbdrv.c ****  * Creation Date: 2004-12-29
   5:usbdrv/usbdrv.c ****  * Tabsize: 4
   6:usbdrv/usbdrv.c ****  *
   7:usbdrv/usbdrv.c ****  
   8:usbdrv/usbdrv.c ****  * Copyright: (c) 2005 by OBJECTIVE DEVELOPMENT Software GmbH
   9:usbdrv/usbdrv.c ****  * License: GNU GPL v2 (see License.txt), GNU GPL v3 or proprietary (CommercialLicense.txt)
  10:usbdrv/usbdrv.c ****  */
  11:usbdrv/usbdrv.c **** 
  12:usbdrv/usbdrv.c **** /* This copy of usbdrv.c was optimized to reduce the memory footprint with micronucleus V2
  13:usbdrv/usbdrv.c ****  *
  14:usbdrv/usbdrv.c ****  * Changes: 
  15:usbdrv/usbdrv.c ****  *     a) Replies to USB SETUP IN Packets are now only possible from Flash
  16:usbdrv/usbdrv.c ****  *       * Commented out routines to copy from SRAM
  17:usbdrv/usbdrv.c ****  *       * remove msgflag variable and all handling involving it
  18:usbdrv/usbdrv.c ****  */ 
  19:usbdrv/usbdrv.c **** #define MNHACK_ONLY_FLASH_MSGPTR                
  20:usbdrv/usbdrv.c **** /*     b) Do not use preinitialized global variables to avoid having to initialize
  21:usbdrv/usbdrv.c ****  *        the data section.
  22:usbdrv/usbdrv.c ****  */
  23:usbdrv/usbdrv.c **** #define MNHACK_NO_DATASECTION   
  24:usbdrv/usbdrv.c ****  
  25:usbdrv/usbdrv.c **** #include "usbdrv.h"
  26:usbdrv/usbdrv.c **** #include "oddebug.h"
  27:usbdrv/usbdrv.c **** 
  28:usbdrv/usbdrv.c **** /*
  29:usbdrv/usbdrv.c **** General Description:
  30:usbdrv/usbdrv.c **** This module implements the C-part of the USB driver. See usbdrv.h for a
  31:usbdrv/usbdrv.c **** documentation of the entire driver.
  32:usbdrv/usbdrv.c **** */
  33:usbdrv/usbdrv.c **** 
  34:usbdrv/usbdrv.c **** /* ------------------------------------------------------------------------- */
  35:usbdrv/usbdrv.c **** 
  36:usbdrv/usbdrv.c **** /* raw USB registers / interface to assembler code: */
  37:usbdrv/usbdrv.c **** uchar usbRxBuf[2*USB_BUFSIZE];  /* raw RX buffer: PID, 8 bytes data, 2 bytes CRC */
  38:usbdrv/usbdrv.c **** uchar       usbInputBufOffset;  /* offset in usbRxBuf used for low level receiving */
  39:usbdrv/usbdrv.c **** uchar       usbDeviceAddr;      /* assigned during enumeration, defaults to 0 */
  40:usbdrv/usbdrv.c **** uchar       usbNewDeviceAddr;   /* device ID which should be set after status phase */
  41:usbdrv/usbdrv.c **** uchar       usbConfiguration;   /* currently selected configuration. Administered by driver, but no
  42:usbdrv/usbdrv.c **** volatile schar usbRxLen;        /* = 0; number of bytes in usbRxBuf; 0 means free, -1 for flow cont
GAS LISTING C:\Users\thouli\AppData\Local\Temp\cc8sA0gt.s 			page 11


  43:usbdrv/usbdrv.c **** uchar       usbCurrentTok;      /* last token received or endpoint number for last OUT token if != 
  44:usbdrv/usbdrv.c **** uchar       usbRxToken;         /* token for data we received; or endpont number for last OUT */
  45:usbdrv/usbdrv.c **** #ifdef MNHACK_NO_DATASECTION
  46:usbdrv/usbdrv.c ****   volatile uchar usbTxLen;   /* number of bytes to transmit with next IN token or handshake token *
  47:usbdrv/usbdrv.c **** #else
  48:usbdrv/usbdrv.c ****   volatile uchar usbTxLen = USBPID_NAK;   /* number of bytes to transmit with next IN token or hand
  49:usbdrv/usbdrv.c **** #endif
  50:usbdrv/usbdrv.c **** uchar       usbTxBuf[USB_BUFSIZE];/* data to transmit with next IN, free if usbTxLen contains hands
  51:usbdrv/usbdrv.c **** #if USB_COUNT_SOF
  52:usbdrv/usbdrv.c **** volatile uchar  usbSofCount;    /* incremented by assembler module every SOF */
  53:usbdrv/usbdrv.c **** #endif
  54:usbdrv/usbdrv.c **** #if USB_CFG_HAVE_INTRIN_ENDPOINT && !USB_CFG_SUPPRESS_INTR_CODE
  55:usbdrv/usbdrv.c **** usbTxStatus_t  usbTxStatus1;
  56:usbdrv/usbdrv.c **** #   if USB_CFG_HAVE_INTRIN_ENDPOINT3
  57:usbdrv/usbdrv.c **** usbTxStatus_t  usbTxStatus3;
  58:usbdrv/usbdrv.c **** #   endif
  59:usbdrv/usbdrv.c **** #endif
  60:usbdrv/usbdrv.c **** #if USB_CFG_CHECK_DATA_TOGGLING
  61:usbdrv/usbdrv.c **** uchar       usbCurrentDataToken;/* when we check data toggling to ignore duplicate packets */
  62:usbdrv/usbdrv.c **** #endif
  63:usbdrv/usbdrv.c **** 
  64:usbdrv/usbdrv.c **** /* USB status registers / not shared with asm code */
  65:usbdrv/usbdrv.c **** usbMsgPtr_t         usbMsgPtr;      /* data to transmit next -- ROM or RAM address */
  66:usbdrv/usbdrv.c **** #ifdef MNHACK_NO_DATASECTION
  67:usbdrv/usbdrv.c ****   static usbMsgLen_t  usbMsgLen; /* remaining number of bytes */
  68:usbdrv/usbdrv.c **** #else
  69:usbdrv/usbdrv.c ****   static usbMsgLen_t  usbMsgLen = USB_NO_MSG; /* remaining number of bytes */
  70:usbdrv/usbdrv.c **** #endif
  71:usbdrv/usbdrv.c ****   
  72:usbdrv/usbdrv.c **** #ifndef MNHACK_ONLY_FLASH_MSGPTR                
  73:usbdrv/usbdrv.c **** static uchar        usbMsgFlags;    /* flag values see below */
  74:usbdrv/usbdrv.c **** #endif
  75:usbdrv/usbdrv.c **** 
  76:usbdrv/usbdrv.c **** #define USB_FLG_MSGPTR_IS_ROM   (1<<6)
  77:usbdrv/usbdrv.c **** #define USB_FLG_USE_USER_RW     (1<<7)
  78:usbdrv/usbdrv.c **** 
  79:usbdrv/usbdrv.c **** /*
  80:usbdrv/usbdrv.c **** optimizing hints:
  81:usbdrv/usbdrv.c **** - do not post/pre inc/dec integer values in operations
  82:usbdrv/usbdrv.c **** - assign value of USB_READ_FLASH() to register variables and don't use side effects in arg
  83:usbdrv/usbdrv.c **** - use narrow scope for variables which should be in X/Y/Z register
  84:usbdrv/usbdrv.c **** - assign char sized expressions to variables to force 8 bit arithmetics
  85:usbdrv/usbdrv.c **** */
  86:usbdrv/usbdrv.c **** 
  87:usbdrv/usbdrv.c **** /* -------------------------- String Descriptors --------------------------- */
  88:usbdrv/usbdrv.c **** 
  89:usbdrv/usbdrv.c **** #if USB_CFG_DESCR_PROPS_STRINGS == 0
  90:usbdrv/usbdrv.c **** 
  91:usbdrv/usbdrv.c **** #if USB_CFG_DESCR_PROPS_STRING_0 == 0
  92:usbdrv/usbdrv.c **** #undef USB_CFG_DESCR_PROPS_STRING_0
  93:usbdrv/usbdrv.c **** #define USB_CFG_DESCR_PROPS_STRING_0    sizeof(usbDescriptorString0)
  94:usbdrv/usbdrv.c **** PROGMEM const char usbDescriptorString0[] = { /* language descriptor */
  95:usbdrv/usbdrv.c ****     4,          /* sizeof(usbDescriptorString0): length of descriptor in bytes */
  96:usbdrv/usbdrv.c ****     3,          /* descriptor type */
  97:usbdrv/usbdrv.c ****     0x09, 0x04, /* language index (0x0409 = US-English) */
  98:usbdrv/usbdrv.c **** };
  99:usbdrv/usbdrv.c **** #endif
GAS LISTING C:\Users\thouli\AppData\Local\Temp\cc8sA0gt.s 			page 12


 100:usbdrv/usbdrv.c **** 
 101:usbdrv/usbdrv.c **** #if USB_CFG_DESCR_PROPS_STRING_VENDOR == 0 && USB_CFG_VENDOR_NAME_LEN
 102:usbdrv/usbdrv.c **** #undef USB_CFG_DESCR_PROPS_STRING_VENDOR
 103:usbdrv/usbdrv.c **** #define USB_CFG_DESCR_PROPS_STRING_VENDOR   sizeof(usbDescriptorStringVendor)
 104:usbdrv/usbdrv.c **** PROGMEM const int  usbDescriptorStringVendor[] = {
 105:usbdrv/usbdrv.c ****     USB_STRING_DESCRIPTOR_HEADER(USB_CFG_VENDOR_NAME_LEN),
 106:usbdrv/usbdrv.c ****     USB_CFG_VENDOR_NAME
 107:usbdrv/usbdrv.c **** };
 108:usbdrv/usbdrv.c **** #endif
 109:usbdrv/usbdrv.c **** 
 110:usbdrv/usbdrv.c **** #if USB_CFG_DESCR_PROPS_STRING_PRODUCT == 0 && USB_CFG_DEVICE_NAME_LEN
 111:usbdrv/usbdrv.c **** #undef USB_CFG_DESCR_PROPS_STRING_PRODUCT
 112:usbdrv/usbdrv.c **** #define USB_CFG_DESCR_PROPS_STRING_PRODUCT   sizeof(usbDescriptorStringDevice)
 113:usbdrv/usbdrv.c **** PROGMEM const int  usbDescriptorStringDevice[] = {
 114:usbdrv/usbdrv.c ****     USB_STRING_DESCRIPTOR_HEADER(USB_CFG_DEVICE_NAME_LEN),
 115:usbdrv/usbdrv.c ****     USB_CFG_DEVICE_NAME
 116:usbdrv/usbdrv.c **** };
 117:usbdrv/usbdrv.c **** #endif
 118:usbdrv/usbdrv.c **** 
 119:usbdrv/usbdrv.c **** #if USB_CFG_DESCR_PROPS_STRING_SERIAL_NUMBER == 0 && USB_CFG_SERIAL_NUMBER_LEN
 120:usbdrv/usbdrv.c **** #undef USB_CFG_DESCR_PROPS_STRING_SERIAL_NUMBER
 121:usbdrv/usbdrv.c **** #define USB_CFG_DESCR_PROPS_STRING_SERIAL_NUMBER    sizeof(usbDescriptorStringSerialNumber)
 122:usbdrv/usbdrv.c **** PROGMEM const int usbDescriptorStringSerialNumber[] = {
 123:usbdrv/usbdrv.c ****     USB_STRING_DESCRIPTOR_HEADER(USB_CFG_SERIAL_NUMBER_LEN),
 124:usbdrv/usbdrv.c ****     USB_CFG_SERIAL_NUMBER
 125:usbdrv/usbdrv.c **** };
 126:usbdrv/usbdrv.c **** #endif
 127:usbdrv/usbdrv.c **** 
 128:usbdrv/usbdrv.c **** #endif  /* USB_CFG_DESCR_PROPS_STRINGS == 0 */
 129:usbdrv/usbdrv.c **** 
 130:usbdrv/usbdrv.c **** /* --------------------------- Device Descriptor --------------------------- */
 131:usbdrv/usbdrv.c **** 
 132:usbdrv/usbdrv.c **** #if USB_CFG_DESCR_PROPS_DEVICE == 0
 133:usbdrv/usbdrv.c **** #undef USB_CFG_DESCR_PROPS_DEVICE
 134:usbdrv/usbdrv.c **** #define USB_CFG_DESCR_PROPS_DEVICE  sizeof(usbDescriptorDevice)
 135:usbdrv/usbdrv.c **** PROGMEM const char usbDescriptorDevice[] = {    /* USB device descriptor */
 136:usbdrv/usbdrv.c ****     18,         /* sizeof(usbDescriptorDevice): length of descriptor in bytes */
 137:usbdrv/usbdrv.c ****     USBDESCR_DEVICE,        /* descriptor type */
 138:usbdrv/usbdrv.c ****     0x10, 0x01,             /* USB version supported */
 139:usbdrv/usbdrv.c ****     USB_CFG_DEVICE_CLASS,
 140:usbdrv/usbdrv.c ****     USB_CFG_DEVICE_SUBCLASS,
 141:usbdrv/usbdrv.c ****     0,                      /* protocol */
 142:usbdrv/usbdrv.c ****     8,                      /* max packet size */
 143:usbdrv/usbdrv.c ****     /* the following two casts affect the first byte of the constant only, but
 144:usbdrv/usbdrv.c ****      * that's sufficient to avoid a warning with the default values.
 145:usbdrv/usbdrv.c ****      */
 146:usbdrv/usbdrv.c ****     (char)USB_CFG_VENDOR_ID,/* 2 bytes */
 147:usbdrv/usbdrv.c ****     (char)USB_CFG_DEVICE_ID,/* 2 bytes */
 148:usbdrv/usbdrv.c ****     USB_CFG_DEVICE_VERSION, /* 2 bytes */
 149:usbdrv/usbdrv.c ****     USB_CFG_DESCR_PROPS_STRING_VENDOR != 0 ? 1 : 0,         /* manufacturer string index */
 150:usbdrv/usbdrv.c ****     USB_CFG_DESCR_PROPS_STRING_PRODUCT != 0 ? 2 : 0,        /* product string index */
 151:usbdrv/usbdrv.c ****     USB_CFG_DESCR_PROPS_STRING_SERIAL_NUMBER != 0 ? 3 : 0,  /* serial number string index */
 152:usbdrv/usbdrv.c ****     1,          /* number of configurations */
 153:usbdrv/usbdrv.c **** };
 154:usbdrv/usbdrv.c **** #endif
 155:usbdrv/usbdrv.c **** 
 156:usbdrv/usbdrv.c **** /* ----------------------- Configuration Descriptor ------------------------ */
GAS LISTING C:\Users\thouli\AppData\Local\Temp\cc8sA0gt.s 			page 13


 157:usbdrv/usbdrv.c **** 
 158:usbdrv/usbdrv.c **** #if USB_CFG_DESCR_PROPS_HID_REPORT != 0 && USB_CFG_DESCR_PROPS_HID == 0
 159:usbdrv/usbdrv.c **** #undef USB_CFG_DESCR_PROPS_HID
 160:usbdrv/usbdrv.c **** #define USB_CFG_DESCR_PROPS_HID     9   /* length of HID descriptor in config descriptor below */
 161:usbdrv/usbdrv.c **** #endif
 162:usbdrv/usbdrv.c **** 
 163:usbdrv/usbdrv.c **** #if USB_CFG_DESCR_PROPS_CONFIGURATION == 0
 164:usbdrv/usbdrv.c **** #undef USB_CFG_DESCR_PROPS_CONFIGURATION
 165:usbdrv/usbdrv.c **** #define USB_CFG_DESCR_PROPS_CONFIGURATION   sizeof(usbDescriptorConfiguration)
 166:usbdrv/usbdrv.c **** PROGMEM const char usbDescriptorConfiguration[] = {    /* USB configuration descriptor */
 167:usbdrv/usbdrv.c ****     9,          /* sizeof(usbDescriptorConfiguration): length of descriptor in bytes */
 168:usbdrv/usbdrv.c ****     USBDESCR_CONFIG,    /* descriptor type */
 169:usbdrv/usbdrv.c ****     18 + 7 * USB_CFG_HAVE_INTRIN_ENDPOINT + 7 * USB_CFG_HAVE_INTRIN_ENDPOINT3 +
 170:usbdrv/usbdrv.c ****                 (USB_CFG_DESCR_PROPS_HID & 0xff), 0,
 171:usbdrv/usbdrv.c ****                 /* total length of data returned (including inlined descriptors) */
 172:usbdrv/usbdrv.c ****     1,          /* number of interfaces in this configuration */
 173:usbdrv/usbdrv.c ****     1,          /* index of this configuration */
 174:usbdrv/usbdrv.c ****     0,          /* configuration name string index */
 175:usbdrv/usbdrv.c **** #if USB_CFG_IS_SELF_POWERED
 176:usbdrv/usbdrv.c ****     (1 << 7) | USBATTR_SELFPOWER,       /* attributes */
 177:usbdrv/usbdrv.c **** #else
 178:usbdrv/usbdrv.c ****     (1 << 7),                           /* attributes */
 179:usbdrv/usbdrv.c **** #endif
 180:usbdrv/usbdrv.c ****     USB_CFG_MAX_BUS_POWER/2,            /* max USB current in 2mA units */
 181:usbdrv/usbdrv.c **** /* interface descriptor follows inline: */
 182:usbdrv/usbdrv.c ****     9,          /* sizeof(usbDescrInterface): length of descriptor in bytes */
 183:usbdrv/usbdrv.c ****     USBDESCR_INTERFACE, /* descriptor type */
 184:usbdrv/usbdrv.c ****     0,          /* index of this interface */
 185:usbdrv/usbdrv.c ****     0,          /* alternate setting for this interface */
 186:usbdrv/usbdrv.c ****     USB_CFG_HAVE_INTRIN_ENDPOINT + USB_CFG_HAVE_INTRIN_ENDPOINT3, /* endpoints excl 0: number of en
 187:usbdrv/usbdrv.c ****     USB_CFG_INTERFACE_CLASS,
 188:usbdrv/usbdrv.c ****     USB_CFG_INTERFACE_SUBCLASS,
 189:usbdrv/usbdrv.c ****     USB_CFG_INTERFACE_PROTOCOL,
 190:usbdrv/usbdrv.c ****     0,          /* string index for interface */
 191:usbdrv/usbdrv.c **** #if (USB_CFG_DESCR_PROPS_HID & 0xff)    /* HID descriptor */
 192:usbdrv/usbdrv.c ****     9,          /* sizeof(usbDescrHID): length of descriptor in bytes */
 193:usbdrv/usbdrv.c ****     USBDESCR_HID,   /* descriptor type: HID */
 194:usbdrv/usbdrv.c ****     0x01, 0x01, /* BCD representation of HID version */
 195:usbdrv/usbdrv.c ****     0x00,       /* target country code */
 196:usbdrv/usbdrv.c ****     0x01,       /* number of HID Report (or other HID class) Descriptor infos to follow */
 197:usbdrv/usbdrv.c ****     0x22,       /* descriptor type: report */
 198:usbdrv/usbdrv.c ****     USB_CFG_HID_REPORT_DESCRIPTOR_LENGTH, 0,  /* total length of report descriptor */
 199:usbdrv/usbdrv.c **** #endif
 200:usbdrv/usbdrv.c **** #if USB_CFG_HAVE_INTRIN_ENDPOINT    /* endpoint descriptor for endpoint 1 */
 201:usbdrv/usbdrv.c ****     7,          /* sizeof(usbDescrEndpoint) */
 202:usbdrv/usbdrv.c ****     USBDESCR_ENDPOINT,  /* descriptor type = endpoint */
 203:usbdrv/usbdrv.c ****     (char)0x81, /* IN endpoint number 1 */
 204:usbdrv/usbdrv.c ****     0x03,       /* attrib: Interrupt endpoint */
 205:usbdrv/usbdrv.c ****     8, 0,       /* maximum packet size */
 206:usbdrv/usbdrv.c ****     USB_CFG_INTR_POLL_INTERVAL, /* in ms */
 207:usbdrv/usbdrv.c **** #endif
 208:usbdrv/usbdrv.c **** #if USB_CFG_HAVE_INTRIN_ENDPOINT3   /* endpoint descriptor for endpoint 3 */
 209:usbdrv/usbdrv.c ****     7,          /* sizeof(usbDescrEndpoint) */
 210:usbdrv/usbdrv.c ****     USBDESCR_ENDPOINT,  /* descriptor type = endpoint */
 211:usbdrv/usbdrv.c ****     (char)(0x80 | USB_CFG_EP3_NUMBER), /* IN endpoint number 3 */
 212:usbdrv/usbdrv.c ****     0x03,       /* attrib: Interrupt endpoint */
 213:usbdrv/usbdrv.c ****     8, 0,       /* maximum packet size */
GAS LISTING C:\Users\thouli\AppData\Local\Temp\cc8sA0gt.s 			page 14


 214:usbdrv/usbdrv.c ****     USB_CFG_INTR_POLL_INTERVAL, /* in ms */
 215:usbdrv/usbdrv.c **** #endif
 216:usbdrv/usbdrv.c **** };
 217:usbdrv/usbdrv.c **** #endif
 218:usbdrv/usbdrv.c **** 
 219:usbdrv/usbdrv.c **** /* ------------------------------------------------------------------------- */
 220:usbdrv/usbdrv.c **** 
 221:usbdrv/usbdrv.c **** static inline void  usbResetDataToggling(void)
 222:usbdrv/usbdrv.c **** {
 223:usbdrv/usbdrv.c **** #if USB_CFG_HAVE_INTRIN_ENDPOINT && !USB_CFG_SUPPRESS_INTR_CODE
 224:usbdrv/usbdrv.c ****     USB_SET_DATATOKEN1(USB_INITIAL_DATATOKEN);  /* reset data toggling for interrupt endpoint */
 225:usbdrv/usbdrv.c **** #   if USB_CFG_HAVE_INTRIN_ENDPOINT3
 226:usbdrv/usbdrv.c ****     USB_SET_DATATOKEN3(USB_INITIAL_DATATOKEN);  /* reset data toggling for interrupt endpoint */
 227:usbdrv/usbdrv.c **** #   endif
 228:usbdrv/usbdrv.c **** #endif
 229:usbdrv/usbdrv.c **** }
 230:usbdrv/usbdrv.c **** 
 231:usbdrv/usbdrv.c **** static inline void  usbResetStall(void)
 232:usbdrv/usbdrv.c **** {
 233:usbdrv/usbdrv.c **** #if USB_CFG_IMPLEMENT_HALT && USB_CFG_HAVE_INTRIN_ENDPOINT
 234:usbdrv/usbdrv.c ****         usbTxLen1 = USBPID_NAK;
 235:usbdrv/usbdrv.c **** #if USB_CFG_HAVE_INTRIN_ENDPOINT3
 236:usbdrv/usbdrv.c ****         usbTxLen3 = USBPID_NAK;
 237:usbdrv/usbdrv.c **** #endif
 238:usbdrv/usbdrv.c **** #endif
 239:usbdrv/usbdrv.c **** }
 240:usbdrv/usbdrv.c **** 
 241:usbdrv/usbdrv.c **** /* ------------------------------------------------------------------------- */
 242:usbdrv/usbdrv.c **** 
 243:usbdrv/usbdrv.c **** #if !USB_CFG_SUPPRESS_INTR_CODE
 244:usbdrv/usbdrv.c **** #if USB_CFG_HAVE_INTRIN_ENDPOINT
 245:usbdrv/usbdrv.c **** static void usbGenericSetInterrupt(uchar *data, uchar len, usbTxStatus_t *txStatus)
 246:usbdrv/usbdrv.c **** {
 247:usbdrv/usbdrv.c **** uchar   *p;
 248:usbdrv/usbdrv.c **** char    i;
 249:usbdrv/usbdrv.c **** 
 250:usbdrv/usbdrv.c **** #if USB_CFG_IMPLEMENT_HALT
 251:usbdrv/usbdrv.c ****     if(usbTxLen1 == USBPID_STALL)
 252:usbdrv/usbdrv.c ****         return;
 253:usbdrv/usbdrv.c **** #endif
 254:usbdrv/usbdrv.c ****     if(txStatus->len & 0x10){   /* packet buffer was empty */
 255:usbdrv/usbdrv.c ****         txStatus->buffer[0] ^= USBPID_DATA0 ^ USBPID_DATA1; /* toggle token */
 256:usbdrv/usbdrv.c ****     }else{
 257:usbdrv/usbdrv.c ****         txStatus->len = USBPID_NAK; /* avoid sending outdated (overwritten) interrupt data */
 258:usbdrv/usbdrv.c ****     }
 259:usbdrv/usbdrv.c ****     p = txStatus->buffer + 1;
 260:usbdrv/usbdrv.c ****     i = len;
 261:usbdrv/usbdrv.c ****     do{                         /* if len == 0, we still copy 1 byte, but that's no problem */
 262:usbdrv/usbdrv.c ****         *p++ = *data++;
 263:usbdrv/usbdrv.c ****     }while(--i > 0);            /* loop control at the end is 2 bytes shorter than at beginning */
 264:usbdrv/usbdrv.c ****     usbCrc16Append(&txStatus->buffer[1], len);
 265:usbdrv/usbdrv.c ****     txStatus->len = len + 4;    /* len must be given including sync byte */
 266:usbdrv/usbdrv.c ****     DBG2(0x21 + (((int)txStatus >> 3) & 3), txStatus->buffer, len + 3);
 267:usbdrv/usbdrv.c **** }
 268:usbdrv/usbdrv.c **** 
 269:usbdrv/usbdrv.c **** USB_PUBLIC void usbSetInterrupt(uchar *data, uchar len)
 270:usbdrv/usbdrv.c **** {
GAS LISTING C:\Users\thouli\AppData\Local\Temp\cc8sA0gt.s 			page 15


 271:usbdrv/usbdrv.c ****     usbGenericSetInterrupt(data, len, &usbTxStatus1);
 272:usbdrv/usbdrv.c **** }
 273:usbdrv/usbdrv.c **** #endif
 274:usbdrv/usbdrv.c **** 
 275:usbdrv/usbdrv.c **** #if USB_CFG_HAVE_INTRIN_ENDPOINT3
 276:usbdrv/usbdrv.c **** USB_PUBLIC void usbSetInterrupt3(uchar *data, uchar len)
 277:usbdrv/usbdrv.c **** {
 278:usbdrv/usbdrv.c ****     usbGenericSetInterrupt(data, len, &usbTxStatus3);
 279:usbdrv/usbdrv.c **** }
 280:usbdrv/usbdrv.c **** #endif
 281:usbdrv/usbdrv.c **** #endif /* USB_CFG_SUPPRESS_INTR_CODE */
 282:usbdrv/usbdrv.c **** 
 283:usbdrv/usbdrv.c **** /* ------------------ utilities for code following below ------------------- */
 284:usbdrv/usbdrv.c **** 
 285:usbdrv/usbdrv.c **** /* Use defines for the switch statement so that we can choose between an
 286:usbdrv/usbdrv.c ****  * if()else if() and a switch/case based implementation. switch() is more
 287:usbdrv/usbdrv.c ****  * efficient for a LARGE set of sequential choices, if() is better in all other
 288:usbdrv/usbdrv.c ****  * cases.
 289:usbdrv/usbdrv.c ****  */
 290:usbdrv/usbdrv.c **** #if USB_CFG_USE_SWITCH_STATEMENT
 291:usbdrv/usbdrv.c **** #   define SWITCH_START(cmd)       switch(cmd){{
 292:usbdrv/usbdrv.c **** #   define SWITCH_CASE(value)      }break; case (value):{
 293:usbdrv/usbdrv.c **** #   define SWITCH_CASE2(v1,v2)     }break; case (v1): case(v2):{
 294:usbdrv/usbdrv.c **** #   define SWITCH_CASE3(v1,v2,v3)  }break; case (v1): case(v2): case(v3):{
 295:usbdrv/usbdrv.c **** #   define SWITCH_DEFAULT          }break; default:{
 296:usbdrv/usbdrv.c **** #   define SWITCH_END              }}
 297:usbdrv/usbdrv.c **** #else
 298:usbdrv/usbdrv.c **** #   define SWITCH_START(cmd)       {uchar _cmd = cmd; if(0){
 299:usbdrv/usbdrv.c **** #   define SWITCH_CASE(value)      }else if(_cmd == (value)){
 300:usbdrv/usbdrv.c **** #   define SWITCH_CASE2(v1,v2)     }else if(_cmd == (v1) || _cmd == (v2)){
 301:usbdrv/usbdrv.c **** #   define SWITCH_CASE3(v1,v2,v3)  }else if(_cmd == (v1) || _cmd == (v2) || _cmd == (v3)){
 302:usbdrv/usbdrv.c **** #   define SWITCH_DEFAULT          }else{
 303:usbdrv/usbdrv.c **** #   define SWITCH_END              }}
 304:usbdrv/usbdrv.c **** #endif
 305:usbdrv/usbdrv.c **** 
 306:usbdrv/usbdrv.c **** #ifndef USB_RX_USER_HOOK
 307:usbdrv/usbdrv.c **** #define USB_RX_USER_HOOK(data, len)
 308:usbdrv/usbdrv.c **** #endif
 309:usbdrv/usbdrv.c **** #ifndef USB_SET_ADDRESS_HOOK
 310:usbdrv/usbdrv.c **** #define USB_SET_ADDRESS_HOOK()
 311:usbdrv/usbdrv.c **** #endif
 312:usbdrv/usbdrv.c **** 
 313:usbdrv/usbdrv.c **** /* ------------------------------------------------------------------------- */
 314:usbdrv/usbdrv.c **** 
 315:usbdrv/usbdrv.c **** /* We use if() instead of #if in the macro below because #if can't be used
 316:usbdrv/usbdrv.c ****  * in macros and the compiler optimizes constant conditions anyway.
 317:usbdrv/usbdrv.c ****  * This may cause problems with undefined symbols if compiled without
 318:usbdrv/usbdrv.c ****  * optimizing!
 319:usbdrv/usbdrv.c ****  */
 320:usbdrv/usbdrv.c **** 
 321:usbdrv/usbdrv.c ****   #define GET_DESCRIPTOR(cfgProp, staticName)         \
 322:usbdrv/usbdrv.c ****       if(cfgProp){                                    \
 323:usbdrv/usbdrv.c ****           if((cfgProp) & USB_PROP_IS_RAM)             \
 324:usbdrv/usbdrv.c ****               flags = 0;                              \
 325:usbdrv/usbdrv.c ****           if((cfgProp) & USB_PROP_IS_DYNAMIC){        \
 326:usbdrv/usbdrv.c ****               len = usbFunctionDescriptor(rq);        \
 327:usbdrv/usbdrv.c ****           }else{                                      \
GAS LISTING C:\Users\thouli\AppData\Local\Temp\cc8sA0gt.s 			page 16


 328:usbdrv/usbdrv.c ****               len = USB_PROP_LENGTH(cfgProp);         \
 329:usbdrv/usbdrv.c ****               usbMsgPtr = (usbMsgPtr_t)(staticName);  \
 330:usbdrv/usbdrv.c ****           }                                           \
 331:usbdrv/usbdrv.c ****       }
 332:usbdrv/usbdrv.c **** 
 333:usbdrv/usbdrv.c **** /* usbDriverDescriptor() is similar to usbFunctionDescriptor(), but used
 334:usbdrv/usbdrv.c ****  * internally for all types of descriptors.
 335:usbdrv/usbdrv.c ****  */
 336:usbdrv/usbdrv.c **** static inline usbMsgLen_t usbDriverDescriptor(usbRequest_t *rq)
 337:usbdrv/usbdrv.c **** {
 338:usbdrv/usbdrv.c **** usbMsgLen_t len = 0;
 339:usbdrv/usbdrv.c **** uchar       flags = USB_FLG_MSGPTR_IS_ROM;
 340:usbdrv/usbdrv.c **** 
 341:usbdrv/usbdrv.c ****     SWITCH_START(rq->wValue.bytes[1])
 342:usbdrv/usbdrv.c ****     SWITCH_CASE(USBDESCR_DEVICE)    /* 1 */
 343:usbdrv/usbdrv.c ****         GET_DESCRIPTOR(USB_CFG_DESCR_PROPS_DEVICE, usbDescriptorDevice)
 344:usbdrv/usbdrv.c ****     SWITCH_CASE(USBDESCR_CONFIG)    /* 2 */
 345:usbdrv/usbdrv.c ****         GET_DESCRIPTOR(USB_CFG_DESCR_PROPS_CONFIGURATION, usbDescriptorConfiguration)
 346:usbdrv/usbdrv.c ****     SWITCH_CASE(USBDESCR_STRING)    /* 3 */
 347:usbdrv/usbdrv.c **** #if USB_CFG_DESCR_PROPS_STRINGS & USB_PROP_IS_DYNAMIC
 348:usbdrv/usbdrv.c ****         if(USB_CFG_DESCR_PROPS_STRINGS & USB_PROP_IS_RAM)
 349:usbdrv/usbdrv.c ****             flags = 0;
 350:usbdrv/usbdrv.c ****         len = usbFunctionDescriptor(rq);
 351:usbdrv/usbdrv.c **** #else   /* USB_CFG_DESCR_PROPS_STRINGS & USB_PROP_IS_DYNAMIC */
 352:usbdrv/usbdrv.c ****         SWITCH_START(rq->wValue.bytes[0])
 353:usbdrv/usbdrv.c ****         SWITCH_CASE(0)
 354:usbdrv/usbdrv.c ****             GET_DESCRIPTOR(USB_CFG_DESCR_PROPS_STRING_0, usbDescriptorString0)
 355:usbdrv/usbdrv.c ****         SWITCH_CASE(1)
 356:usbdrv/usbdrv.c ****             GET_DESCRIPTOR(USB_CFG_DESCR_PROPS_STRING_VENDOR, usbDescriptorStringVendor)
 357:usbdrv/usbdrv.c ****         SWITCH_CASE(2)
 358:usbdrv/usbdrv.c ****             GET_DESCRIPTOR(USB_CFG_DESCR_PROPS_STRING_PRODUCT, usbDescriptorStringDevice)
 359:usbdrv/usbdrv.c ****         SWITCH_CASE(3)
 360:usbdrv/usbdrv.c ****             GET_DESCRIPTOR(USB_CFG_DESCR_PROPS_STRING_SERIAL_NUMBER, usbDescriptorStringSerialNumbe
 361:usbdrv/usbdrv.c ****         SWITCH_DEFAULT
 362:usbdrv/usbdrv.c ****             if(USB_CFG_DESCR_PROPS_UNKNOWN & USB_PROP_IS_DYNAMIC){
 363:usbdrv/usbdrv.c ****                 len = usbFunctionDescriptor(rq);
 364:usbdrv/usbdrv.c ****             }
 365:usbdrv/usbdrv.c ****         SWITCH_END
 366:usbdrv/usbdrv.c **** #endif  /* USB_CFG_DESCR_PROPS_STRINGS & USB_PROP_IS_DYNAMIC */
 367:usbdrv/usbdrv.c **** #if USB_CFG_DESCR_PROPS_HID_REPORT  /* only support HID descriptors if enabled */
 368:usbdrv/usbdrv.c ****     SWITCH_CASE(USBDESCR_HID)       /* 0x21 */
 369:usbdrv/usbdrv.c ****         GET_DESCRIPTOR(USB_CFG_DESCR_PROPS_HID, usbDescriptorConfiguration + 18)
 370:usbdrv/usbdrv.c ****     SWITCH_CASE(USBDESCR_HID_REPORT)/* 0x22 */
 371:usbdrv/usbdrv.c ****         GET_DESCRIPTOR(USB_CFG_DESCR_PROPS_HID_REPORT, usbDescriptorHidReport)
 372:usbdrv/usbdrv.c **** #endif
 373:usbdrv/usbdrv.c ****     SWITCH_DEFAULT
 374:usbdrv/usbdrv.c ****         if(USB_CFG_DESCR_PROPS_UNKNOWN & USB_PROP_IS_DYNAMIC){
 375:usbdrv/usbdrv.c ****             len = usbFunctionDescriptor(rq);
 376:usbdrv/usbdrv.c ****         }
 377:usbdrv/usbdrv.c ****     SWITCH_END
 378:usbdrv/usbdrv.c ****     
 379:usbdrv/usbdrv.c ****     flags=flags;  // Make compiler shut up about unused variable
 380:usbdrv/usbdrv.c **** #ifndef MNHACK_ONLY_FLASH_MSGPTR                
 381:usbdrv/usbdrv.c ****     usbMsgFlags = flags;
 382:usbdrv/usbdrv.c **** #endif    
 383:usbdrv/usbdrv.c ****     return len;
 384:usbdrv/usbdrv.c **** }
GAS LISTING C:\Users\thouli\AppData\Local\Temp\cc8sA0gt.s 			page 17


 385:usbdrv/usbdrv.c **** 
 386:usbdrv/usbdrv.c **** /* ------------------------------------------------------------------------- */
 387:usbdrv/usbdrv.c **** 
 388:usbdrv/usbdrv.c **** /* usbDriverSetup() is similar to usbFunctionSetup(), but it's used for
 389:usbdrv/usbdrv.c ****  * standard requests instead of class and custom requests.
 390:usbdrv/usbdrv.c ****  */
 391:usbdrv/usbdrv.c **** static inline usbMsgLen_t usbDriverSetup(usbRequest_t *rq)
 392:usbdrv/usbdrv.c **** {
 393:usbdrv/usbdrv.c **** usbMsgLen_t len = 0;
 394:usbdrv/usbdrv.c **** uchar   *dataPtr = usbTxBuf + 9;    /* there are 2 bytes free space at the end of the buffer */
 395:usbdrv/usbdrv.c **** uchar   value = rq->wValue.bytes[0];
 396:usbdrv/usbdrv.c **** #if USB_CFG_IMPLEMENT_HALT
 397:usbdrv/usbdrv.c **** uchar   index = rq->wIndex.bytes[0];
 398:usbdrv/usbdrv.c **** #endif
 399:usbdrv/usbdrv.c **** 
 400:usbdrv/usbdrv.c ****     dataPtr[0] = 0; /* default reply common to USBRQ_GET_STATUS and USBRQ_GET_INTERFACE */
 401:usbdrv/usbdrv.c ****     SWITCH_START(rq->bRequest)
 402:usbdrv/usbdrv.c ****     SWITCH_CASE(USBRQ_GET_STATUS)           /* 0 */
 403:usbdrv/usbdrv.c ****         uchar recipient = rq->bmRequestType & USBRQ_RCPT_MASK;  /* assign arith ops to variables to
 404:usbdrv/usbdrv.c ****         if(USB_CFG_IS_SELF_POWERED && recipient == USBRQ_RCPT_DEVICE)
 405:usbdrv/usbdrv.c ****             dataPtr[0] =  USB_CFG_IS_SELF_POWERED;
 406:usbdrv/usbdrv.c **** #if USB_CFG_IMPLEMENT_HALT
 407:usbdrv/usbdrv.c ****         if(recipient == USBRQ_RCPT_ENDPOINT && index == 0x81)   /* request status for endpoint 1 */
 408:usbdrv/usbdrv.c ****             dataPtr[0] = usbTxLen1 == USBPID_STALL;
 409:usbdrv/usbdrv.c **** #endif
 410:usbdrv/usbdrv.c ****         dataPtr[1] = 0;
 411:usbdrv/usbdrv.c ****         len = 2;
 412:usbdrv/usbdrv.c **** #if USB_CFG_IMPLEMENT_HALT
 413:usbdrv/usbdrv.c ****     SWITCH_CASE2(USBRQ_CLEAR_FEATURE, USBRQ_SET_FEATURE)    /* 1, 3 */
 414:usbdrv/usbdrv.c ****         if(value == 0 && index == 0x81){    /* feature 0 == HALT for endpoint == 1 */
 415:usbdrv/usbdrv.c ****             usbTxLen1 = rq->bRequest == USBRQ_CLEAR_FEATURE ? USBPID_NAK : USBPID_STALL;
 416:usbdrv/usbdrv.c ****             usbResetDataToggling();
 417:usbdrv/usbdrv.c ****         }
 418:usbdrv/usbdrv.c **** #endif
 419:usbdrv/usbdrv.c ****     SWITCH_CASE(USBRQ_SET_ADDRESS)          /* 5 */
 420:usbdrv/usbdrv.c ****         usbNewDeviceAddr = value;
 421:usbdrv/usbdrv.c ****         USB_SET_ADDRESS_HOOK();
 422:usbdrv/usbdrv.c ****     SWITCH_CASE(USBRQ_GET_DESCRIPTOR)       /* 6 */
 423:usbdrv/usbdrv.c ****         len = usbDriverDescriptor(rq);
 424:usbdrv/usbdrv.c ****         goto skipMsgPtrAssignment;
 425:usbdrv/usbdrv.c ****     SWITCH_CASE(USBRQ_GET_CONFIGURATION)    /* 8 */
 426:usbdrv/usbdrv.c ****         dataPtr = &usbConfiguration;  /* send current configuration value */
 427:usbdrv/usbdrv.c ****         len = 1;
 428:usbdrv/usbdrv.c ****     SWITCH_CASE(USBRQ_SET_CONFIGURATION)    /* 9 */
 429:usbdrv/usbdrv.c ****         usbConfiguration = value;
 430:usbdrv/usbdrv.c ****         usbResetStall();
 431:usbdrv/usbdrv.c ****     SWITCH_CASE(USBRQ_GET_INTERFACE)        /* 10 */
 432:usbdrv/usbdrv.c ****         len = 1;
 433:usbdrv/usbdrv.c **** #if USB_CFG_HAVE_INTRIN_ENDPOINT && !USB_CFG_SUPPRESS_INTR_CODE
 434:usbdrv/usbdrv.c ****     SWITCH_CASE(USBRQ_SET_INTERFACE)        /* 11 */
 435:usbdrv/usbdrv.c ****         usbResetDataToggling();
 436:usbdrv/usbdrv.c ****         usbResetStall();
 437:usbdrv/usbdrv.c **** #endif
 438:usbdrv/usbdrv.c ****     SWITCH_DEFAULT                          /* 7=SET_DESCRIPTOR, 12=SYNC_FRAME */
 439:usbdrv/usbdrv.c ****         /* Should we add an optional hook here? */
 440:usbdrv/usbdrv.c ****     SWITCH_END
 441:usbdrv/usbdrv.c ****     usbMsgPtr = (usbMsgPtr_t)dataPtr;
GAS LISTING C:\Users\thouli\AppData\Local\Temp\cc8sA0gt.s 			page 18


 442:usbdrv/usbdrv.c **** skipMsgPtrAssignment:
 443:usbdrv/usbdrv.c ****     return len;
 444:usbdrv/usbdrv.c **** }
 445:usbdrv/usbdrv.c **** 
 446:usbdrv/usbdrv.c **** /* ------------------------------------------------------------------------- */
 447:usbdrv/usbdrv.c **** 
 448:usbdrv/usbdrv.c **** /* usbProcessRx() is called for every message received by the interrupt
 449:usbdrv/usbdrv.c ****  * routine. It distinguishes between SETUP and DATA packets and processes
 450:usbdrv/usbdrv.c ****  * them accordingly.
 451:usbdrv/usbdrv.c ****  */
 452:usbdrv/usbdrv.c **** static inline void usbProcessRx(uchar *data, uchar len)
 453:usbdrv/usbdrv.c **** {
 454:usbdrv/usbdrv.c **** usbRequest_t    *rq = (void *)data;
 455:usbdrv/usbdrv.c **** 
 456:usbdrv/usbdrv.c **** /* usbRxToken can be:
 457:usbdrv/usbdrv.c ****  * 0x2d 00101101 (USBPID_SETUP for setup data)
 458:usbdrv/usbdrv.c ****  * 0xe1 11100001 (USBPID_OUT: data phase of setup transfer)
 459:usbdrv/usbdrv.c ****  * 0...0x0f for OUT on endpoint X
 460:usbdrv/usbdrv.c ****  */
 461:usbdrv/usbdrv.c ****     DBG2(0x10 + (usbRxToken & 0xf), data, len + 2); /* SETUP=1d, SETUP-DATA=11, OUTx=1x */
 462:usbdrv/usbdrv.c ****     USB_RX_USER_HOOK(data, len)
 463:usbdrv/usbdrv.c **** #if USB_CFG_IMPLEMENT_FN_WRITEOUT
 464:usbdrv/usbdrv.c ****     if(usbRxToken < 0x10){  /* OUT to endpoint != 0: endpoint number in usbRxToken */
 465:usbdrv/usbdrv.c ****         usbFunctionWriteOut(data, len);
 466:usbdrv/usbdrv.c ****         return;
 467:usbdrv/usbdrv.c ****     }
 468:usbdrv/usbdrv.c **** #endif
 469:usbdrv/usbdrv.c ****     if(usbRxToken == (uchar)USBPID_SETUP){
 470:usbdrv/usbdrv.c ****         if(len != 8)    /* Setup size must be always 8 bytes. Ignore otherwise. */
 471:usbdrv/usbdrv.c ****             return;
 472:usbdrv/usbdrv.c ****         usbMsgLen_t replyLen;
 473:usbdrv/usbdrv.c ****         usbTxBuf[0] = USBPID_DATA0;         /* initialize data toggling */
 474:usbdrv/usbdrv.c ****         usbTxLen = USBPID_NAK;              /* abort pending transmit */
 475:usbdrv/usbdrv.c **** #ifndef MNHACK_ONLY_FLASH_MSGPTR            
 476:usbdrv/usbdrv.c ****         usbMsgFlags = 0;
 477:usbdrv/usbdrv.c **** #endif        
 478:usbdrv/usbdrv.c ****         uchar type = rq->bmRequestType & USBRQ_TYPE_MASK;
 479:usbdrv/usbdrv.c ****         if(type != USBRQ_TYPE_STANDARD){    /* standard requests are handled by driver */
 480:usbdrv/usbdrv.c ****             replyLen = usbFunctionSetup(data);
 481:usbdrv/usbdrv.c ****         }else{
 482:usbdrv/usbdrv.c ****             replyLen = usbDriverSetup(rq);
 483:usbdrv/usbdrv.c ****         }
 484:usbdrv/usbdrv.c **** #if USB_CFG_IMPLEMENT_FN_READ || USB_CFG_IMPLEMENT_FN_WRITE
 485:usbdrv/usbdrv.c ****         if(replyLen == USB_NO_MSG){         /* use user-supplied read/write function */
 486:usbdrv/usbdrv.c ****             /* do some conditioning on replyLen, but on IN transfers only */
 487:usbdrv/usbdrv.c ****             if((rq->bmRequestType & USBRQ_DIR_MASK) != USBRQ_DIR_HOST_TO_DEVICE){
 488:usbdrv/usbdrv.c ****                 if(sizeof(replyLen) < sizeof(rq->wLength.word)){ /* help compiler with optimizing *
 489:usbdrv/usbdrv.c ****                     replyLen = rq->wLength.bytes[0];
 490:usbdrv/usbdrv.c ****                 }else{
 491:usbdrv/usbdrv.c ****                     replyLen = rq->wLength.word;
 492:usbdrv/usbdrv.c ****                 }
 493:usbdrv/usbdrv.c ****             }
 494:usbdrv/usbdrv.c ****             usbMsgFlags = USB_FLG_USE_USER_RW;
 495:usbdrv/usbdrv.c ****         }else   /* The 'else' prevents that we limit a replyLen of USB_NO_MSG to the maximum transf
 496:usbdrv/usbdrv.c **** #endif
 497:usbdrv/usbdrv.c ****         if(sizeof(replyLen) < sizeof(rq->wLength.word)){ /* help compiler with optimizing */
 498:usbdrv/usbdrv.c ****             if(!rq->wLength.bytes[1] && replyLen > rq->wLength.bytes[0])    /* limit length to max 
GAS LISTING C:\Users\thouli\AppData\Local\Temp\cc8sA0gt.s 			page 19


 499:usbdrv/usbdrv.c ****                 replyLen = rq->wLength.bytes[0];
 500:usbdrv/usbdrv.c ****         }else{
 501:usbdrv/usbdrv.c ****             if(replyLen > rq->wLength.word)     /* limit length to max */
 502:usbdrv/usbdrv.c ****                 replyLen = rq->wLength.word;
 503:usbdrv/usbdrv.c ****         }
 504:usbdrv/usbdrv.c ****         usbMsgLen = replyLen;
 505:usbdrv/usbdrv.c ****     }else{  /* usbRxToken must be USBPID_OUT, which means data phase of setup (control-out) */
 506:usbdrv/usbdrv.c **** #if USB_CFG_IMPLEMENT_FN_WRITE
 507:usbdrv/usbdrv.c ****         if(usbMsgFlags & USB_FLG_USE_USER_RW){
 508:usbdrv/usbdrv.c ****             uchar rval = usbFunctionWrite(data, len);
 509:usbdrv/usbdrv.c ****             if(rval == 0xff){   /* an error occurred */
 510:usbdrv/usbdrv.c ****                 usbTxLen = USBPID_STALL;
 511:usbdrv/usbdrv.c ****             }else if(rval != 0){    /* This was the final package */
 512:usbdrv/usbdrv.c ****                 usbMsgLen = 0;  /* answer with a zero-sized data packet */
 513:usbdrv/usbdrv.c ****             }
 514:usbdrv/usbdrv.c ****         }
 515:usbdrv/usbdrv.c **** #endif
 516:usbdrv/usbdrv.c ****     }
 517:usbdrv/usbdrv.c **** }
 518:usbdrv/usbdrv.c **** 
 519:usbdrv/usbdrv.c **** /* ------------------------------------------------------------------------- */
 520:usbdrv/usbdrv.c **** 
 521:usbdrv/usbdrv.c **** /* This function is similar to usbFunctionRead(), but it's also called for
 522:usbdrv/usbdrv.c ****  * data handled automatically by the driver (e.g. descriptor reads).
 523:usbdrv/usbdrv.c ****  */
 524:usbdrv/usbdrv.c **** static uchar usbDeviceRead(uchar *data, uchar len)
 525:usbdrv/usbdrv.c **** {
 526:usbdrv/usbdrv.c ****     if(len > 0){    /* don't bother app with 0 sized reads */
 527:usbdrv/usbdrv.c **** #if USB_CFG_IMPLEMENT_FN_READ
 528:usbdrv/usbdrv.c ****         if(usbMsgFlags & USB_FLG_USE_USER_RW){
 529:usbdrv/usbdrv.c ****             len = usbFunctionRead(data, len);
 530:usbdrv/usbdrv.c ****         }else
 531:usbdrv/usbdrv.c **** #endif
 532:usbdrv/usbdrv.c ****         {
 533:usbdrv/usbdrv.c ****             uchar i = len;
 534:usbdrv/usbdrv.c ****             usbMsgPtr_t r = usbMsgPtr;
 535:usbdrv/usbdrv.c **** #ifndef MNHACK_ONLY_FLASH_MSGPTR            
 536:usbdrv/usbdrv.c ****             if(usbMsgFlags & USB_FLG_MSGPTR_IS_ROM){    /* ROM data */
 537:usbdrv/usbdrv.c **** #endif          
 538:usbdrv/usbdrv.c ****                 do{
 539:usbdrv/usbdrv.c ****                     uchar c = USB_READ_FLASH(r);    /* assign to char size variable to enforce byte
 540:usbdrv/usbdrv.c ****                     *data++ = c;
 541:usbdrv/usbdrv.c ****                     r++;
 542:usbdrv/usbdrv.c ****                 }while(--i);
 543:usbdrv/usbdrv.c **** #ifndef MNHACK_ONLY_FLASH_MSGPTR            
 544:usbdrv/usbdrv.c ****              }else{  // RAM data 
 545:usbdrv/usbdrv.c ****                 do{
 546:usbdrv/usbdrv.c ****                     *data++ = *((uchar *)r);
 547:usbdrv/usbdrv.c ****                     r++;
 548:usbdrv/usbdrv.c ****                 }while(--i);
 549:usbdrv/usbdrv.c ****             }
 550:usbdrv/usbdrv.c **** #endif                      
 551:usbdrv/usbdrv.c ****             usbMsgPtr = r;
 552:usbdrv/usbdrv.c ****         }
 553:usbdrv/usbdrv.c ****     }
 554:usbdrv/usbdrv.c ****     return len;
 555:usbdrv/usbdrv.c **** }
GAS LISTING C:\Users\thouli\AppData\Local\Temp\cc8sA0gt.s 			page 20


 556:usbdrv/usbdrv.c **** 
 557:usbdrv/usbdrv.c **** /* ------------------------------------------------------------------------- */
 558:usbdrv/usbdrv.c **** 
 559:usbdrv/usbdrv.c **** /* usbBuildTxBlock() is called when we have data to transmit and the
 560:usbdrv/usbdrv.c ****  * interrupt routine's transmit buffer is empty.
 561:usbdrv/usbdrv.c ****  */
 562:usbdrv/usbdrv.c **** static inline void usbBuildTxBlock(void)
 563:usbdrv/usbdrv.c **** {
 564:usbdrv/usbdrv.c **** usbMsgLen_t wantLen;
 565:usbdrv/usbdrv.c **** uchar       len;
 566:usbdrv/usbdrv.c **** 
 567:usbdrv/usbdrv.c ****     wantLen = usbMsgLen;
 568:usbdrv/usbdrv.c ****     if(wantLen > 8)
 569:usbdrv/usbdrv.c ****         wantLen = 8;
 570:usbdrv/usbdrv.c ****     usbMsgLen -= wantLen;
 571:usbdrv/usbdrv.c ****     usbTxBuf[0] ^= USBPID_DATA0 ^ USBPID_DATA1; /* DATA toggling */
 572:usbdrv/usbdrv.c ****     len = usbDeviceRead(usbTxBuf + 1, wantLen);
 573:usbdrv/usbdrv.c ****     if(len <= 8){           /* valid data packet */
 574:usbdrv/usbdrv.c ****         usbCrc16Append(&usbTxBuf[1], len);
 575:usbdrv/usbdrv.c ****         len += 4;           /* length including sync byte */
 576:usbdrv/usbdrv.c ****         if(len < 12)        /* a partial package identifies end of message */
 577:usbdrv/usbdrv.c ****             usbMsgLen = USB_NO_MSG;
 578:usbdrv/usbdrv.c ****     }else{
 579:usbdrv/usbdrv.c ****         len = USBPID_STALL;   /* stall the endpoint */
 580:usbdrv/usbdrv.c ****         usbMsgLen = USB_NO_MSG;
 581:usbdrv/usbdrv.c ****     }
 582:usbdrv/usbdrv.c ****     usbTxLen = len;
 583:usbdrv/usbdrv.c ****     DBG2(0x20, usbTxBuf, len-1);
 584:usbdrv/usbdrv.c **** }
 585:usbdrv/usbdrv.c **** 
 586:usbdrv/usbdrv.c **** /* ------------------------------------------------------------------------- */
 587:usbdrv/usbdrv.c **** 
 588:usbdrv/usbdrv.c **** static inline void usbHandleResetHook(uchar notResetState)
 589:usbdrv/usbdrv.c **** {
 590:usbdrv/usbdrv.c **** #ifdef USB_RESET_HOOK
 591:usbdrv/usbdrv.c **** static uchar    wasReset;
 592:usbdrv/usbdrv.c **** uchar           isReset = !notResetState;
 593:usbdrv/usbdrv.c **** 
 594:usbdrv/usbdrv.c ****     if(wasReset != isReset){
 595:usbdrv/usbdrv.c ****         USB_RESET_HOOK(isReset);
 596:usbdrv/usbdrv.c ****         wasReset = isReset;
 597:usbdrv/usbdrv.c ****     }
 598:usbdrv/usbdrv.c **** #else
 599:usbdrv/usbdrv.c ****     notResetState = notResetState;  // avoid compiler warning
 600:usbdrv/usbdrv.c **** #endif
 601:usbdrv/usbdrv.c **** }
 602:usbdrv/usbdrv.c **** 
 603:usbdrv/usbdrv.c **** /* ------------------------------------------------------------------------- */
 604:usbdrv/usbdrv.c **** 
 605:usbdrv/usbdrv.c **** USB_PUBLIC void usbPoll(void)
 606:usbdrv/usbdrv.c **** {
 607:usbdrv/usbdrv.c **** schar   len;
 608:usbdrv/usbdrv.c **** uchar   i;
 609:usbdrv/usbdrv.c **** 
 610:usbdrv/usbdrv.c ****     len = usbRxLen - 3;
 611:usbdrv/usbdrv.c ****     if(len >= 0){
 612:usbdrv/usbdrv.c **** /* We could check CRC16 here -- but ACK has already been sent anyway. If you
GAS LISTING C:\Users\thouli\AppData\Local\Temp\cc8sA0gt.s 			page 21


 613:usbdrv/usbdrv.c ****  * need data integrity checks with this driver, check the CRC in your app
 614:usbdrv/usbdrv.c ****  * code and report errors back to the host. Since the ACK was already sent,
 615:usbdrv/usbdrv.c ****  * retries must be handled on application level.
 616:usbdrv/usbdrv.c ****  * unsigned crc = usbCrc16(buffer + 1, usbRxLen - 3);
 617:usbdrv/usbdrv.c ****  */
 618:usbdrv/usbdrv.c ****         usbProcessRx(usbRxBuf + USB_BUFSIZE + 1 - usbInputBufOffset, len);
 619:usbdrv/usbdrv.c **** #if USB_CFG_HAVE_FLOWCONTROL
 620:usbdrv/usbdrv.c ****         if(usbRxLen > 0)    /* only mark as available if not inactivated */
 621:usbdrv/usbdrv.c ****             usbRxLen = 0;
 622:usbdrv/usbdrv.c **** #else
 623:usbdrv/usbdrv.c ****         usbRxLen = 0;       /* mark rx buffer as available */
 624:usbdrv/usbdrv.c **** #endif
 625:usbdrv/usbdrv.c ****     }
 626:usbdrv/usbdrv.c ****     if(usbTxLen & 0x10){    /* transmit system idle */
 627:usbdrv/usbdrv.c ****         if(usbMsgLen != USB_NO_MSG){    /* transmit data pending? */
 628:usbdrv/usbdrv.c ****             usbBuildTxBlock();
 629:usbdrv/usbdrv.c ****         }
 630:usbdrv/usbdrv.c ****     }
 631:usbdrv/usbdrv.c ****     for(i = 20; i > 0; i--){
 632:usbdrv/usbdrv.c ****         uchar usbLineStatus = USBIN & USBMASK;
 633:usbdrv/usbdrv.c ****         if(usbLineStatus != 0)  /* SE0 has ended */
 634:usbdrv/usbdrv.c ****             goto isNotReset;
 635:usbdrv/usbdrv.c ****     }
 636:usbdrv/usbdrv.c ****     /* RESET condition, called multiple times during reset */
 637:usbdrv/usbdrv.c ****     usbNewDeviceAddr = 0;
 638:usbdrv/usbdrv.c ****     usbDeviceAddr = 0;
 639:usbdrv/usbdrv.c ****     usbResetStall();
 640:usbdrv/usbdrv.c ****     DBG1(0xff, 0, 0);
 641:usbdrv/usbdrv.c **** isNotReset:
 642:usbdrv/usbdrv.c ****     usbHandleResetHook(i);
 643:usbdrv/usbdrv.c **** }
 644:usbdrv/usbdrv.c **** 
 645:usbdrv/usbdrv.c **** /* ------------------------------------------------------------------------- */
 646:usbdrv/usbdrv.c **** 
 647:usbdrv/usbdrv.c **** USB_PUBLIC void usbInit(void)
 648:usbdrv/usbdrv.c **** {
 649:usbdrv/usbdrv.c **** #ifdef MNHACK_NO_DATASECTION   
 650:usbdrv/usbdrv.c ****     usbTxLen = USBPID_NAK;
 106               		.loc 3 650 0
 107 0020 8AE5      		ldi r24,lo8(90)
 108 0022 8093 0000 		sts usbTxLen,r24
 651:usbdrv/usbdrv.c ****     usbMsgLen = USB_NO_MSG;
 109               		.loc 3 651 0
 110 0026 8FEF      		ldi r24,lo8(-1)
 111 0028 8093 0000 		sts usbMsgLen,r24
 652:usbdrv/usbdrv.c **** #endif
 653:usbdrv/usbdrv.c ****     
 654:usbdrv/usbdrv.c **** #if USB_INTR_CFG_SET != 0
 655:usbdrv/usbdrv.c ****     USB_INTR_CFG |= USB_INTR_CFG_SET;
 112               		.loc 3 655 0
 113 002c AC9A      		sbi 0x15,4
 656:usbdrv/usbdrv.c **** #endif
 657:usbdrv/usbdrv.c **** #if USB_INTR_CFG_CLR != 0
 658:usbdrv/usbdrv.c ****     USB_INTR_CFG &= ~(USB_INTR_CFG_CLR);
 659:usbdrv/usbdrv.c **** #endif
 660:usbdrv/usbdrv.c ****     USB_INTR_ENABLE |= (1 << USB_INTR_ENABLE_BIT);
 114               		.loc 3 660 0
GAS LISTING C:\Users\thouli\AppData\Local\Temp\cc8sA0gt.s 			page 22


 115 002e 8BB7      		in r24,0x3b
 116 0030 8062      		ori r24,lo8(32)
 117 0032 8BBF      		out 0x3b,r24
 118 0034 0895      		ret
 119               	.LBE33:
 120               	.LBE32:
 121               		.cfi_endproc
 122               	.LFE24:
 123               		.size	initHardware, .-initHardware
 124               		.section	.text.startup.main,"ax",@progbits
 125               	.global	main
 126               		.type	main, @function
 127               	main:
 128               	.LFB26:
 236:main.c        **** 
 237:main.c        ****   usbInit();    // Initialize INT settings after reconnect
 238:main.c        **** }
 239:main.c        **** 
 240:main.c        **** /* ------------------------------------------------------------------------ */
 241:main.c        **** // reset system to a normal state and launch user program
 242:main.c        **** static void leaveBootloader(void) __attribute__((__noreturn__));
 243:main.c        **** static inline void leaveBootloader(void) {
 244:main.c        ****  
 245:main.c        ****   bootLoaderExit();
 246:main.c        **** 
 247:main.c        **** #if OSCCAL_RESTORE_DEFAULT
 248:main.c        ****   OSCCAL=osccal_default;
 249:main.c        ****   nop(); // NOP to avoid CPU hickup during oscillator stabilization
 250:main.c        **** #endif
 251:main.c        **** 
 252:main.c        **** #if (defined __AVR_ATmega328P__)||(defined __AVR_ATmega168P__)||(defined __AVR_ATmega88P__)
 253:main.c        ****   // Tell the system that we want to read from the RWW memory again.
 254:main.c        ****   boot_rww_enable();
 255:main.c        **** #endif
 256:main.c        ****   
 257:main.c        ****  asm volatile ("rjmp __vectors - 4"); // jump to application reset vector at end of flash
 258:main.c        ****   
 259:main.c        ****  for (;;); // Make sure function does not return to help compiler optimize
 260:main.c        **** }
 261:main.c        **** 
 262:main.c        **** void USB_INTR_VECTOR(void);
 263:main.c        **** int main(void) {
 129               		.loc 1 263 0
 130               		.cfi_startproc
 131               	/* prologue: function */
 132               	/* frame size = 0 */
 133               	/* stack size = 0 */
 134               	.L__stack_usage = 0
 264:main.c        ****   uint8_t osccal_tmp;
 265:main.c        ****   
 266:main.c        ****   bootLoaderInit();
 135               		.loc 1 266 0
 136 0000 BD98      		cbi 0x17,5
 137 0002 C59A      		sbi 0x18,5
 138               	.LVL7:
 139               	.LBB68:
 140               	.LBB69:
GAS LISTING C:\Users\thouli\AppData\Local\Temp\cc8sA0gt.s 			page 23


 141               		.loc 2 187 0
 142 0004 8CE1      		ldi r24,lo8(4124)
 143 0006 90E1      		ldi r25,hi8(4124)
 144 0008 0197      	1:	sbiw r24,1
 145 000a 01F4      		brne 1b
 146 000c 00C0      		rjmp .
 147 000e 0000      		nop
 148               	.LVL8:
 149               	.LBE69:
 150               	.LBE68:
 151               	.LBB70:
 267:main.c        ****   
 268:main.c        ****   /* save default OSCCAL calibration  */
 269:main.c        **** #if OSCCAL_RESTORE_DEFAULT
 270:main.c        ****   osccal_default = OSCCAL;
 271:main.c        **** #endif
 272:main.c        ****   
 273:main.c        **** #if OSCCAL_SAVE_CALIB
 274:main.c        ****   // adjust clock to previous calibration value, so bootloader starts with proper clock calibration
 275:main.c        ****   unsigned char stored_osc_calibration = pgm_read_byte(BOOTLOADER_ADDRESS - TINYVECTOR_OSCCAL_OFFSE
 152               		.loc 1 275 0
 153 0010 EAE7      		ldi r30,lo8(122)
 154 0012 F9E1      		ldi r31,lo8(25)
 155               	/* #APP */
 156               	 ;  275 "main.c" 1
 157 0014 E491      		lpm r30, Z
 158               		
 159               	 ;  0 "" 2
 160               	.LVL9:
 161               	/* #NOAPP */
 162               	.LBE70:
 276:main.c        ****   if (stored_osc_calibration != 0xFF) {
 163               		.loc 1 276 0
 164 0016 EF3F      		cpi r30,lo8(-1)
 165 0018 01F0      		breq .L7
 277:main.c        ****     OSCCAL=stored_osc_calibration;
 166               		.loc 1 277 0
 167 001a E1BF      		out 0x31,r30
 278:main.c        ****     nop();
 168               		.loc 1 278 0
 169               	/* #APP */
 170               	 ;  278 "main.c" 1
 171 001c 0000      		nop
 172               	 ;  0 "" 2
 173               	/* #NOAPP */
 174               	.L7:
 279:main.c        ****   }
 280:main.c        **** #endif
 281:main.c        ****   
 282:main.c        ****   if (bootLoaderStartCondition()||(pgm_read_byte(BOOTLOADER_ADDRESS - TINYVECTOR_RESET_OFFSET + 1)=
 175               		.loc 1 282 0
 176 001e B59B      		sbis 0x16,5
 177 0020 00C0      		rjmp .L8
 178               	.LVL10:
 179               	.LBB71:
 180               		.loc 1 282 0 is_stmt 0 discriminator 1
 181 0022 EDE7      		ldi r30,lo8(125)
GAS LISTING C:\Users\thouli\AppData\Local\Temp\cc8sA0gt.s 			page 24


 182 0024 F9E1      		ldi r31,lo8(25)
 183               	.LVL11:
 184               	/* #APP */
 185               	 ;  282 "main.c" 1
 186 0026 E491      		lpm r30, Z
 187               		
 188               	 ;  0 "" 2
 189               	.LVL12:
 190               	/* #NOAPP */
 191               	.LBE71:
 192 0028 EF3F      		cpi r30,lo8(-1)
 193 002a 01F0      		breq .+2
 194 002c 00C0      		rjmp .L9
 195               	.LVL13:
 196               	.L8:
 283:main.c        ****   
 284:main.c        ****     initHardware();        
 197               		.loc 1 284 0 is_stmt 1
 198 002e 00D0      		rcall initHardware
 199               	.LVL14:
 285:main.c        ****     LED_INIT();
 286:main.c        **** 
 287:main.c        ****     if (AUTO_EXIT_NO_USB_MS>0) {
 288:main.c        ****       idlePolls.b[1]=((AUTO_EXIT_MS-AUTO_EXIT_NO_USB_MS)/5)>>8;
 289:main.c        ****     } else {
 290:main.c        ****       idlePolls.b[1]=0;
 200               		.loc 1 290 0
 201 0030 712C      		mov r7,__zero_reg__
 291:main.c        ****     }
 292:main.c        ****     
 293:main.c        ****     command=cmd_local_nop;     
 202               		.loc 1 293 0
 203 0032 312C      		mov r3,__zero_reg__
 294:main.c        ****     currentAddress.w = 0;
 204               		.loc 1 294 0
 205 0034 412C      		mov r4,__zero_reg__
 206 0036 512C      		mov r5,__zero_reg__
 207               	.L46:
 208               	.LVL15:
 263:main.c        ****   uint8_t osccal_tmp;
 209               		.loc 1 263 0
 210 0038 CCE7      		ldi r28,lo8(124)
 211 003a D5E1      		ldi r29,lo8(21)
 212               	.LBB72:
 295:main.c        ****     
 296:main.c        ****     do {
 297:main.c        ****       // 15 clockcycles per loop.     
 298:main.c        ****       // adjust fastctr for 5ms timeout
 299:main.c        ****       
 300:main.c        ****       uint16_t fastctr=(uint16_t)(F_CPU/(1000.0f*15.0f/5.0f));
 301:main.c        ****       uint8_t  resetctr=100;
 213               		.loc 1 301 0
 214 003c 14E6      		ldi r17,lo8(100)
 215               	.LVL16:
 216               	.L14:
 302:main.c        ****   
 303:main.c        ****       do {        
GAS LISTING C:\Users\thouli\AppData\Local\Temp\cc8sA0gt.s 			page 25


 304:main.c        ****         if ((USBIN & USBMASK) !=0) resetctr=100;
 217               		.loc 1 304 0
 218 003e 86B3      		in r24,0x16
 219 0040 8871      		andi r24,lo8(24)
 220 0042 01F0      		breq .L10
 221 0044 14E6      		ldi r17,lo8(100)
 222               	.LVL17:
 223               	.L10:
 305:main.c        ****         
 306:main.c        ****         if (!--resetctr) { // reset encountered
 224               		.loc 1 306 0
 225 0046 1150      		subi r17,lo8(-(-1))
 226               	.LVL18:
 227 0048 01F4      		brne .L11
 307:main.c        ****            usbNewDeviceAddr = 0;   // bits from the reset handling of usbpoll()
 228               		.loc 1 307 0
 229 004a 1092 0000 		sts usbNewDeviceAddr,__zero_reg__
 308:main.c        ****            usbDeviceAddr = 0;
 230               		.loc 1 308 0
 231 004e 1092 0000 		sts usbDeviceAddr,__zero_reg__
 309:main.c        **** #if (OSCCAL_HAVE_XTAL == 0)           
 310:main.c        ****            calibrateOscillatorASM();   
 232               		.loc 1 310 0
 233 0052 00D0      		rcall calibrateOscillatorASM
 234               	.LVL19:
 235               	.L11:
 311:main.c        **** #endif           
 312:main.c        ****         }
 313:main.c        ****         
 314:main.c        ****         if (USB_INTR_PENDING & (1<<USB_INTR_PENDING_BIT)) {
 236               		.loc 1 314 0
 237 0054 0AB6      		in __tmp_reg__,0x3a
 238 0056 05FE      		sbrs __tmp_reg__,5
 239 0058 00C0      		rjmp .L12
 315:main.c        ****           USB_INTR_VECTOR();  
 240               		.loc 1 315 0
 241 005a 00D0      		rcall __vector_2
 242               	.LVL20:
 316:main.c        ****           USB_INTR_PENDING = 1<<USB_INTR_PENDING_BIT;  // Clear int pending, in case timeout occure
 243               		.loc 1 316 0
 244 005c 80E2      		ldi r24,lo8(32)
 245 005e 8ABF      		out 0x3a,r24
 317:main.c        ****          break;
 246               		.loc 1 317 0
 247 0060 00C0      		rjmp .L13
 248               	.L12:
 249               	.LVL21:
 250 0062 2197      		sbiw r28,1
 251               	.LVL22:
 318:main.c        ****         }
 319:main.c        ****         
 320:main.c        ****       } while(--fastctr);     
 252               		.loc 1 320 0
 253 0064 01F4      		brne .L14
 254               	.L13:
 321:main.c        ****       
 322:main.c        ****       wdr();
GAS LISTING C:\Users\thouli\AppData\Local\Temp\cc8sA0gt.s 			page 26


 255               		.loc 1 322 0
 256               	/* #APP */
 257               	 ;  322 "main.c" 1
 258 0066 A895      		wdr
 259               	 ;  0 "" 2
 323:main.c        ****       
 324:main.c        ****  #if OSCCAL_SLOW_PROGRAMMING
 325:main.c        ****       osccal_tmp  = OSCCAL;
 326:main.c        ****       OSCCAL      = osccal_default;
 327:main.c        ****  #endif
 328:main.c        ****       // commands are only evaluated after next USB transmission or after 5 ms passed
 329:main.c        ****       if (command==cmd_erase_application) 
 260               		.loc 1 329 0
 261               	/* #NOAPP */
 262 0068 832D      		mov r24,r3
 263 006a 8230      		cpi r24,lo8(2)
 264 006c 01F4      		brne .L15
 265 006e E0E8      		ldi r30,lo8(-128)
 266 0070 F9E1      		ldi r31,lo8(25)
 267               	.L16:
 268               	.LVL23:
 269               	.LBB73:
 270               	.LBB74:
 118:main.c        **** #endif    
 271               		.loc 1 118 0
 272 0072 E054      		subi r30,64
 273 0074 F109      		sbc r31,__zero_reg__
 274               	.LVL24:
 120:main.c        **** #if (defined __AVR_ATmega328P__)||(defined __AVR_ATmega168P__)||(defined __AVR_ATmega88P__)
 275               		.loc 1 120 0
 276 0076 83E0      		ldi r24,lo8(3)
 277               	/* #APP */
 278               	 ;  120 "main.c" 1
 279 0078 8093 5700 		sts 87, r24
 280 007c E895      		spm
 281               		
 282               	 ;  0 "" 2
 114:main.c        **** #if (defined __AVR_ATtiny841__)||(defined __AVR_ATtiny441__)    
 283               		.loc 1 114 0
 284               	/* #NOAPP */
 285 007e 3097      		sbiw r30,0
 286 0080 01F4      		brne .L16
 128:main.c        **** }
 287               		.loc 1 128 0
 288 0082 412C      		mov r4,__zero_reg__
 289 0084 512C      		mov r5,__zero_reg__
 290 0086 00C0      		rjmp .L17
 291               	.LVL25:
 292               	.L15:
 293               	.LBE74:
 294               	.LBE73:
 330:main.c        ****         eraseApplication();
 331:main.c        ****       if (command==cmd_write_page) 
 295               		.loc 1 331 0
 296 0088 8034      		cpi r24,lo8(64)
 297 008a 01F4      		brne .L18
 298               	.LBB75:
GAS LISTING C:\Users\thouli\AppData\Local\Temp\cc8sA0gt.s 			page 27


 299               	.LBB76:
 133:main.c        ****     boot_page_write(currentAddress.w - 2);   // will halt CPU, no waiting required
 300               		.loc 1 133 0
 301 008c F201      		movw r30,r4
 302 008e 3297      		sbiw r30,2
 303 0090 E038      		cpi r30,-128
 304 0092 99E1      		ldi r25,25
 305 0094 F907      		cpc r31,r25
 306 0096 00F4      		brsh .L17
 134:main.c        **** #if (defined __AVR_ATmega328P__)||(defined __AVR_ATmega168P__)||(defined __AVR_ATmega88P__)
 307               		.loc 1 134 0
 308 0098 85E0      		ldi r24,lo8(5)
 309               	/* #APP */
 310               	 ;  134 "main.c" 1
 311 009a 8093 5700 		sts 87, r24
 312 009e E895      		spm
 313               		
 314               	 ;  0 "" 2
 315               	/* #NOAPP */
 316 00a0 00C0      		rjmp .L17
 317               	.L18:
 318               	.LBE76:
 319               	.LBE75:
 332:main.c        ****         writeFlashPage();          
 333:main.c        ****  #if OSCCAL_SLOW_PROGRAMMING
 334:main.c        ****       OSCCAL      = osccal_tmp;
 335:main.c        ****  #endif
 336:main.c        ****         
 337:main.c        ****       if (command==cmd_exit) {
 320               		.loc 1 337 0
 321 00a2 8430      		cpi r24,lo8(4)
 322 00a4 01F4      		brne .L17
 338:main.c        ****         if (!fastctr) break;  // Only exit after 5 ms timeout     
 323               		.loc 1 338 0
 324 00a6 CD2B      		or r28,r29
 325 00a8 01F4      		brne .L20
 326 00aa 00C0      		rjmp .L19
 327               	.L17:
 339:main.c        ****       } else {
 340:main.c        ****         command=cmd_local_nop;     
 328               		.loc 1 340 0
 329 00ac 312C      		mov r3,__zero_reg__
 330               	.L20:
 331               	.LBB77:
 341:main.c        ****       }  
 342:main.c        ****  
 343:main.c        ****       {
 344:main.c        ****       // This is usbpoll() minus reset logic and double buffering
 345:main.c        ****         int8_t  len;
 346:main.c        ****         len = usbRxLen - 3;
 332               		.loc 1 346 0
 333 00ae 8091 0000 		lds r24,usbRxLen
 334 00b2 8350      		subi r24,lo8(-(-3))
 335               	.LVL26:
 347:main.c        ****         
 348:main.c        ****         if(len >= 0){
 336               		.loc 1 348 0
GAS LISTING C:\Users\thouli\AppData\Local\Temp\cc8sA0gt.s 			page 28


 337 00b4 87FD      		sbrc r24,7
 338 00b6 00C0      		rjmp .L21
 339               	.LVL27:
 340               	.LBB78:
 341               	.LBB79:
 469:usbdrv/usbdrv.c ****         if(len != 8)    /* Setup size must be always 8 bytes. Ignore otherwise. */
 342               		.loc 3 469 0
 343 00b8 9091 0000 		lds r25,usbRxToken
 344 00bc 9D32      		cpi r25,lo8(45)
 345 00be 01F0      		breq .+2
 346 00c0 00C0      		rjmp .L22
 347               	.LBB80:
 470:usbdrv/usbdrv.c ****             return;
 348               		.loc 3 470 0
 349 00c2 8830      		cpi r24,lo8(8)
 350 00c4 01F0      		breq .+2
 351 00c6 00C0      		rjmp .L22
 473:usbdrv/usbdrv.c ****         usbTxLen = USBPID_NAK;              /* abort pending transmit */
 352               		.loc 3 473 0
 353 00c8 83EC      		ldi r24,lo8(-61)
 354               	.LVL28:
 355 00ca 8093 0000 		sts usbTxBuf,r24
 474:usbdrv/usbdrv.c **** #ifndef MNHACK_ONLY_FLASH_MSGPTR            
 356               		.loc 3 474 0
 357 00ce 8AE5      		ldi r24,lo8(90)
 358 00d0 8093 0000 		sts usbTxLen,r24
 359               	.LVL29:
 479:usbdrv/usbdrv.c ****             replyLen = usbFunctionSetup(data);
 360               		.loc 3 479 0
 361 00d4 8091 0000 		lds r24,usbRxBuf+1
 362 00d8 8076      		andi r24,lo8(96)
 363               	.LVL30:
 364 00da 9091 0000 		lds r25,usbRxBuf+2
 365 00de 8823      		tst r24
 366 00e0 01F0      		breq .L23
 367               	.LVL31:
 368               	.LBB81:
 369               	.LBB82:
 177:main.c        ****   if (rq->bRequest == cmd_device_info) { // get device info
 370               		.loc 1 177 0
 371 00e2 712C      		mov r7,__zero_reg__
 178:main.c        ****     usbMsgPtr = (usbMsgPtr_t)configurationReply;
 372               		.loc 1 178 0
 373 00e4 9111      		cpse r25,__zero_reg__
 374 00e6 00C0      		rjmp .L24
 179:main.c        ****     return sizeof(configurationReply);      
 375               		.loc 1 179 0
 376 00e8 80E0      		ldi r24,lo8(configurationReply)
 377 00ea 90E0      		ldi r25,hi8(configurationReply)
 378               	.LVL32:
 379 00ec 9093 0000 		sts usbMsgPtr+1,r25
 380 00f0 8093 0000 		sts usbMsgPtr,r24
 180:main.c        ****   } else if (rq->bRequest == cmd_transfer_page) { 
 381               		.loc 1 180 0
 382 00f4 86E0      		ldi r24,lo8(6)
 383 00f6 00C0      		rjmp .L25
 384               	.LVL33:
GAS LISTING C:\Users\thouli\AppData\Local\Temp\cc8sA0gt.s 			page 29


 385               	.L24:
 181:main.c        ****     // Set page address. Address zero always has to be written first to ensure reset vector patchin
 386               		.loc 1 181 0
 387 00f8 9130      		cpi r25,lo8(1)
 388 00fa 01F4      		brne .L26
 184:main.c        ****       currentAddress.b[0]=rq->wIndex.bytes[0] & (~ (SPM_PAGESIZE-1));     
 389               		.loc 1 184 0
 390 00fc 4114      		cp r4,__zero_reg__
 391 00fe 5104      		cpc r5,__zero_reg__
 392 0100 01F0      		breq .L80
 185:main.c        ****       currentAddress.b[1]=rq->wIndex.bytes[1];     
 393               		.loc 1 185 0
 394 0102 8091 0000 		lds r24,usbRxBuf+5
 395               	.LVL34:
 396 0106 807C      		andi r24,lo8(-64)
 397 0108 482E      		mov r4,r24
 186:main.c        **** 
 398               		.loc 1 186 0
 399 010a 5090 0000 		lds r5,usbRxBuf+6
 191:main.c        **** #else
 400               		.loc 1 191 0
 401 010e 81E1      		ldi r24,lo8(17)
 402 0110 87BF      		out 0x37,r24
 199:main.c        ****       
 403               		.loc 1 199 0
 404               	/* #APP */
 405               	 ;  199 "main.c" 1
 406 0112 E895      		spm
 407               	 ;  0 "" 2
 408               	/* #NOAPP */
 409 0114 00C0      		rjmp .L80
 410               	.LVL35:
 411               	.L26:
 202:main.c        ****     writeWordToPageBuffer(rq->wValue.word);
 412               		.loc 1 202 0
 413 0116 9330      		cpi r25,lo8(3)
 414 0118 01F4      		brne .L28
 203:main.c        ****     writeWordToPageBuffer(rq->wIndex.word);
 415               		.loc 1 203 0
 416 011a 8091 0000 		lds r24,usbRxBuf+3
 417 011e 9091 0000 		lds r25,usbRxBuf+3+1
 418               	.LVL36:
 419 0122 00D0      		rcall writeWordToPageBuffer
 420               	.LVL37:
 204:main.c        ****     if ((currentAddress.b[0] % SPM_PAGESIZE) == 0)
 421               		.loc 1 204 0
 422 0124 8091 0000 		lds r24,usbRxBuf+5
 423 0128 9091 0000 		lds r25,usbRxBuf+5+1
 424 012c 00D0      		rcall writeWordToPageBuffer
 425               	.LVL38:
 205:main.c        ****       command=cmd_write_page; // ask runloop to write our page       
 426               		.loc 1 205 0
 427 012e 842D      		mov r24,r4
 428 0130 8F73      		andi r24,lo8(63)
 429 0132 01F4      		brne .L80
 206:main.c        ****   } else {
 430               		.loc 1 206 0
GAS LISTING C:\Users\thouli\AppData\Local\Temp\cc8sA0gt.s 			page 30


 431 0134 90E4      		ldi r25,lo8(64)
 432 0136 392E      		mov r3,r25
 433 0138 00C0      		rjmp .L25
 434               	.LVL39:
 435               	.L28:
 209:main.c        ****   }
 436               		.loc 1 209 0
 437 013a 9F73      		andi r25,lo8(63)
 438 013c 392E      		mov r3,r25
 439               	.LVL40:
 440               	.L80:
 211:main.c        **** }
 441               		.loc 1 211 0
 442 013e 80E0      		ldi r24,0
 443 0140 00C0      		rjmp .L25
 444               	.LVL41:
 445               	.L23:
 446               	.LBE82:
 447               	.LBE81:
 448               	.LBB83:
 449               	.LBB84:
 395:usbdrv/usbdrv.c **** #if USB_CFG_IMPLEMENT_HALT
 450               		.loc 3 395 0
 451 0142 8091 0000 		lds r24,usbRxBuf+3
 452               	.LVL42:
 400:usbdrv/usbdrv.c ****     SWITCH_START(rq->bRequest)
 453               		.loc 3 400 0
 454 0146 1092 0000 		sts usbTxBuf+9,__zero_reg__
 455               	.LVL43:
 456               	.LBB85:
 402:usbdrv/usbdrv.c ****         uchar recipient = rq->bmRequestType & USBRQ_RCPT_MASK;  /* assign arith ops to variables to
 457               		.loc 3 402 0
 458 014a 9111      		cpse r25,__zero_reg__
 459 014c 00C0      		rjmp .L30
 460               	.LVL44:
 461               	.LBB86:
 410:usbdrv/usbdrv.c ****         len = 2;
 462               		.loc 3 410 0
 463 014e 1092 0000 		sts usbTxBuf+10,__zero_reg__
 464               	.LVL45:
 465               	.LBE86:
 466               	.LBE85:
 394:usbdrv/usbdrv.c **** uchar   value = rq->wValue.bytes[0];
 467               		.loc 3 394 0
 468 0152 20E0      		ldi r18,lo8(usbTxBuf+9)
 469 0154 30E0      		ldi r19,hi8(usbTxBuf+9)
 470               	.LVL46:
 471               	.LBB93:
 472               	.LBB87:
 411:usbdrv/usbdrv.c **** #if USB_CFG_IMPLEMENT_HALT
 473               		.loc 3 411 0
 474 0156 82E0      		ldi r24,lo8(2)
 475               	.LVL47:
 476 0158 00C0      		rjmp .L31
 477               	.LVL48:
 478               	.L30:
 479               	.LBE87:
GAS LISTING C:\Users\thouli\AppData\Local\Temp\cc8sA0gt.s 			page 31


 419:usbdrv/usbdrv.c ****         usbNewDeviceAddr = value;
 480               		.loc 3 419 0
 481 015a 9530      		cpi r25,lo8(5)
 482 015c 01F4      		brne .L32
 420:usbdrv/usbdrv.c ****         USB_SET_ADDRESS_HOOK();
 483               		.loc 3 420 0
 484 015e 8093 0000 		sts usbNewDeviceAddr,r24
 485 0162 00C0      		rjmp .L78
 486               	.L32:
 422:usbdrv/usbdrv.c ****         len = usbDriverDescriptor(rq);
 487               		.loc 3 422 0
 488 0164 9630      		cpi r25,lo8(6)
 489 0166 01F4      		brne .L33
 490 0168 9091 0000 		lds r25,usbRxBuf+4
 491               	.LVL49:
 492               	.LBB88:
 493               	.LBB89:
 494               	.LBB90:
 342:usbdrv/usbdrv.c ****         GET_DESCRIPTOR(USB_CFG_DESCR_PROPS_DEVICE, usbDescriptorDevice)
 495               		.loc 3 342 0
 496 016c 9130      		cpi r25,lo8(1)
 497 016e 01F4      		brne .L34
 498               	.LVL50:
 343:usbdrv/usbdrv.c ****     SWITCH_CASE(USBDESCR_CONFIG)    /* 2 */
 499               		.loc 3 343 0
 500 0170 80E0      		ldi r24,lo8(usbDescriptorDevice)
 501 0172 90E0      		ldi r25,hi8(usbDescriptorDevice)
 502               	.LVL51:
 503 0174 00C0      		rjmp .L79
 504               	.LVL52:
 505               	.L34:
 344:usbdrv/usbdrv.c ****         GET_DESCRIPTOR(USB_CFG_DESCR_PROPS_CONFIGURATION, usbDescriptorConfiguration)
 506               		.loc 3 344 0
 507 0176 9230      		cpi r25,lo8(2)
 508 0178 01F4      		brne .L35
 509               	.LVL53:
 345:usbdrv/usbdrv.c ****     SWITCH_CASE(USBDESCR_STRING)    /* 3 */
 510               		.loc 3 345 0
 511 017a 80E0      		ldi r24,lo8(usbDescriptorConfiguration)
 512 017c 90E0      		ldi r25,hi8(usbDescriptorConfiguration)
 513               	.LVL54:
 514               	.L79:
 515 017e 9093 0000 		sts usbMsgPtr+1,r25
 516 0182 8093 0000 		sts usbMsgPtr,r24
 517 0186 82E1      		ldi r24,lo8(18)
 518 0188 00C0      		rjmp .L25
 519               	.LVL55:
 520               	.L35:
 346:usbdrv/usbdrv.c **** #if USB_CFG_DESCR_PROPS_STRINGS & USB_PROP_IS_DYNAMIC
 521               		.loc 3 346 0
 522 018a 9330      		cpi r25,lo8(3)
 523 018c 01F4      		brne .L80
 524               	.LVL56:
 525               	.LBB91:
 353:usbdrv/usbdrv.c ****             GET_DESCRIPTOR(USB_CFG_DESCR_PROPS_STRING_0, usbDescriptorString0)
 526               		.loc 3 353 0
 527 018e 8111      		cpse r24,__zero_reg__
GAS LISTING C:\Users\thouli\AppData\Local\Temp\cc8sA0gt.s 			page 32


 528 0190 00C0      		rjmp .L80
 529               	.LVL57:
 354:usbdrv/usbdrv.c ****         SWITCH_CASE(1)
 530               		.loc 3 354 0
 531 0192 80E0      		ldi r24,lo8(usbDescriptorString0)
 532 0194 90E0      		ldi r25,hi8(usbDescriptorString0)
 533               	.LVL58:
 534 0196 9093 0000 		sts usbMsgPtr+1,r25
 535 019a 8093 0000 		sts usbMsgPtr,r24
 536 019e 84E0      		ldi r24,lo8(4)
 537 01a0 00C0      		rjmp .L25
 538               	.LVL59:
 539               	.L33:
 540               	.LBE91:
 541               	.LBE90:
 542               	.LBE89:
 543               	.LBE88:
 425:usbdrv/usbdrv.c ****         dataPtr = &usbConfiguration;  /* send current configuration value */
 544               		.loc 3 425 0
 545 01a2 9830      		cpi r25,lo8(8)
 546 01a4 01F0      		breq .L49
 428:usbdrv/usbdrv.c ****         usbConfiguration = value;
 547               		.loc 3 428 0
 548 01a6 9930      		cpi r25,lo8(9)
 549 01a8 01F4      		brne .L36
 429:usbdrv/usbdrv.c ****         usbResetStall();
 550               		.loc 3 429 0
 551 01aa 8093 0000 		sts usbConfiguration,r24
 552               	.L78:
 553               	.LBE93:
 394:usbdrv/usbdrv.c **** uchar   value = rq->wValue.bytes[0];
 554               		.loc 3 394 0
 555 01ae 20E0      		ldi r18,lo8(usbTxBuf+9)
 556 01b0 30E0      		ldi r19,hi8(usbTxBuf+9)
 557               	.LVL60:
 393:usbdrv/usbdrv.c **** uchar   *dataPtr = usbTxBuf + 9;    /* there are 2 bytes free space at the end of the buffer */
 558               		.loc 3 393 0
 559 01b2 80E0      		ldi r24,0
 560               	.LVL61:
 561 01b4 00C0      		rjmp .L31
 562               	.LVL62:
 563               	.L36:
 564               	.LBB94:
 565               	.LBB92:
 411:usbdrv/usbdrv.c **** #if USB_CFG_IMPLEMENT_HALT
 566               		.loc 3 411 0
 567 01b6 81E0      		ldi r24,lo8(1)
 568               	.LVL63:
 569 01b8 9A30      		cpi r25,lo8(10)
 570 01ba 01F0      		breq .L37
 571 01bc 80E0      		ldi r24,0
 572               	.L37:
 573               	.LBE92:
 574               	.LBE94:
 394:usbdrv/usbdrv.c **** uchar   value = rq->wValue.bytes[0];
 575               		.loc 3 394 0
 576 01be 20E0      		ldi r18,lo8(usbTxBuf+9)
GAS LISTING C:\Users\thouli\AppData\Local\Temp\cc8sA0gt.s 			page 33


 577 01c0 30E0      		ldi r19,hi8(usbTxBuf+9)
 578               	.LVL64:
 579 01c2 00C0      		rjmp .L31
 580               	.LVL65:
 581               	.L49:
 582               	.LBB95:
 426:usbdrv/usbdrv.c ****         len = 1;
 583               		.loc 3 426 0
 584 01c4 20E0      		ldi r18,lo8(usbConfiguration)
 585 01c6 30E0      		ldi r19,hi8(usbConfiguration)
 427:usbdrv/usbdrv.c ****     SWITCH_CASE(USBRQ_SET_CONFIGURATION)    /* 9 */
 586               		.loc 3 427 0
 587 01c8 81E0      		ldi r24,lo8(1)
 588               	.LVL66:
 589               	.L31:
 590               	.LBE95:
 441:usbdrv/usbdrv.c **** skipMsgPtrAssignment:
 591               		.loc 3 441 0
 592 01ca 3093 0000 		sts usbMsgPtr+1,r19
 593 01ce 2093 0000 		sts usbMsgPtr,r18
 594               	.LVL67:
 595               	.L25:
 596               	.LBE84:
 597               	.LBE83:
 498:usbdrv/usbdrv.c ****                 replyLen = rq->wLength.bytes[0];
 598               		.loc 3 498 0
 599 01d2 9091 0000 		lds r25,usbRxBuf+8
 600 01d6 9111      		cpse r25,__zero_reg__
 601 01d8 00C0      		rjmp .L38
 602 01da 9091 0000 		lds r25,usbRxBuf+7
 603 01de 9817      		cp r25,r24
 604 01e0 00F4      		brsh .L38
 605 01e2 892F      		mov r24,r25
 606               	.LVL68:
 607               	.L38:
 504:usbdrv/usbdrv.c ****     }else{  /* usbRxToken must be USBPID_OUT, which means data phase of setup (control-out) */
 608               		.loc 3 504 0
 609 01e4 8093 0000 		sts usbMsgLen,r24
 610               	.LVL69:
 611               	.L22:
 612               	.LBE80:
 613               	.LBE79:
 614               	.LBE78:
 349:main.c        ****             usbProcessRx(usbRxBuf + 1, len); // only single buffer due to in-order processing
 350:main.c        ****             usbRxLen = 0;       /* mark rx buffer as available */
 615               		.loc 1 350 0
 616 01e8 1092 0000 		sts usbRxLen,__zero_reg__
 617               	.LVL70:
 618               	.L21:
 351:main.c        ****         }
 352:main.c        ****         
 353:main.c        ****         if(usbTxLen & 0x10){    /* transmit system idle */
 619               		.loc 1 353 0
 620 01ec 8091 0000 		lds r24,usbTxLen
 621 01f0 84FF      		sbrs r24,4
 622 01f2 00C0      		rjmp .L40
 354:main.c        ****             if(usbMsgLen != USB_NO_MSG){    /* transmit data pending? */
GAS LISTING C:\Users\thouli\AppData\Local\Temp\cc8sA0gt.s 			page 34


 623               		.loc 1 354 0
 624 01f4 8091 0000 		lds r24,usbMsgLen
 625 01f8 8F3F      		cpi r24,lo8(-1)
 626 01fa 01F0      		breq .L40
 627               	.LVL71:
 628 01fc C82F      		mov r28,r24
 629               	.LVL72:
 630 01fe 8930      		cpi r24,lo8(9)
 631 0200 00F0      		brlo .L41
 632 0202 C8E0      		ldi r28,lo8(8)
 633               	.L41:
 634               	.LVL73:
 635               	.LBB96:
 636               	.LBB97:
 570:usbdrv/usbdrv.c ****     usbTxBuf[0] ^= USBPID_DATA0 ^ USBPID_DATA1; /* DATA toggling */
 637               		.loc 3 570 0
 638 0204 8C1B      		sub r24,r28
 639 0206 8093 0000 		sts usbMsgLen,r24
 571:usbdrv/usbdrv.c ****     len = usbDeviceRead(usbTxBuf + 1, wantLen);
 640               		.loc 3 571 0
 641 020a 9091 0000 		lds r25,usbTxBuf
 642 020e 88E8      		ldi r24,lo8(-120)
 643 0210 8927      		eor r24,r25
 644 0212 8093 0000 		sts usbTxBuf,r24
 645               	.LVL74:
 646               	.LBB98:
 647               	.LBB99:
 526:usbdrv/usbdrv.c **** #if USB_CFG_IMPLEMENT_FN_READ
 648               		.loc 3 526 0
 649 0216 CC23      		tst r28
 650 0218 01F0      		breq .L42
 651               	.LVL75:
 652               	.LBB100:
 534:usbdrv/usbdrv.c **** #ifndef MNHACK_ONLY_FLASH_MSGPTR            
 653               		.loc 3 534 0
 654 021a E091 0000 		lds r30,usbMsgPtr
 655 021e F091 0000 		lds r31,usbMsgPtr+1
 656               	.LVL76:
 657 0222 A0E0      		ldi r26,lo8(usbTxBuf+1)
 658 0224 B0E0      		ldi r27,hi8(usbTxBuf+1)
 659               	.LVL77:
 660 0226 8C2F      		mov r24,r28
 661               	.LVL78:
 662               	.L43:
 663               	.LBB101:
 664               	.LBB102:
 539:usbdrv/usbdrv.c ****                     *data++ = c;
 665               		.loc 3 539 0
 666               	/* #APP */
 667               	 ;  539 "usbdrv/usbdrv.c" 1
 668 0228 9491      		lpm r25, Z
 669               		
 670               	 ;  0 "" 2
 671               	.LVL79:
 672               	/* #NOAPP */
 673               	.LBE102:
 540:usbdrv/usbdrv.c ****                     r++;
GAS LISTING C:\Users\thouli\AppData\Local\Temp\cc8sA0gt.s 			page 35


 674               		.loc 3 540 0
 675 022a 9D93      		st X+,r25
 541:usbdrv/usbdrv.c ****                 }while(--i);
 676               		.loc 3 541 0
 677 022c 3196      		adiw r30,1
 678               	.LVL80:
 679               	.LBE101:
 542:usbdrv/usbdrv.c **** #ifndef MNHACK_ONLY_FLASH_MSGPTR            
 680               		.loc 3 542 0
 681 022e 8150      		subi r24,lo8(-(-1))
 682               	.LVL81:
 683 0230 01F4      		brne .L43
 551:usbdrv/usbdrv.c ****         }
 684               		.loc 3 551 0
 685 0232 F093 0000 		sts usbMsgPtr+1,r31
 686 0236 E093 0000 		sts usbMsgPtr,r30
 687               	.LVL82:
 688               	.L42:
 689               	.LBE100:
 690               	.LBE99:
 691               	.LBE98:
 574:usbdrv/usbdrv.c ****         len += 4;           /* length including sync byte */
 692               		.loc 3 574 0
 693 023a 6C2F      		mov r22,r28
 694 023c 80E0      		ldi r24,lo8(usbTxBuf+1)
 695 023e 90E0      		ldi r25,hi8(usbTxBuf+1)
 696 0240 00D0      		rcall usbCrc16Append
 697               	.LVL83:
 575:usbdrv/usbdrv.c ****         if(len < 12)        /* a partial package identifies end of message */
 698               		.loc 3 575 0
 699 0242 CC5F      		subi r28,lo8(-(4))
 700               	.LVL84:
 576:usbdrv/usbdrv.c ****             usbMsgLen = USB_NO_MSG;
 701               		.loc 3 576 0
 702 0244 CC30      		cpi r28,lo8(12)
 703 0246 01F0      		breq .L44
 577:usbdrv/usbdrv.c ****     }else{
 704               		.loc 3 577 0
 705 0248 8FEF      		ldi r24,lo8(-1)
 706 024a 8093 0000 		sts usbMsgLen,r24
 707               	.L44:
 582:usbdrv/usbdrv.c ****     DBG2(0x20, usbTxBuf, len-1);
 708               		.loc 3 582 0
 709 024e C093 0000 		sts usbTxLen,r28
 710               	.LVL85:
 711               	.L40:
 712               	.LBE97:
 713               	.LBE96:
 714               	.LBE77:
 355:main.c        ****                 usbBuildTxBlock();
 356:main.c        ****             }
 357:main.c        ****         }
 358:main.c        ****       }
 359:main.c        ****       
 360:main.c        ****       idlePolls.w++;
 715               		.loc 1 360 0
 716 0252 C301      		movw r24,r6
GAS LISTING C:\Users\thouli\AppData\Local\Temp\cc8sA0gt.s 			page 36


 717 0254 0196      		adiw r24,1
 718 0256 3C01      		movw r6,r24
 361:main.c        **** 
 362:main.c        ****       // Try to execute program when bootloader times out      
 363:main.c        ****       if (AUTO_EXIT_MS&&(idlePolls.w==(AUTO_EXIT_MS/5))) {
 719               		.loc 1 363 0
 720 0258 803B      		cpi r24,-80
 721 025a 9440      		sbci r25,4
 722 025c 01F4      		brne .L45
 723               	.LVL86:
 724               	.LBB103:
 364:main.c        ****          if (pgm_read_byte(BOOTLOADER_ADDRESS - TINYVECTOR_RESET_OFFSET + 1)!=0xff)  break;
 725               		.loc 1 364 0
 726 025e EDE7      		ldi r30,lo8(125)
 727 0260 F9E1      		ldi r31,lo8(25)
 728               	/* #APP */
 729               	 ;  364 "main.c" 1
 730 0262 E491      		lpm r30, Z
 731               		
 732               	 ;  0 "" 2
 733               	.LVL87:
 734               	/* #NOAPP */
 735               	.LBE103:
 736 0264 EF3F      		cpi r30,lo8(-1)
 737 0266 01F4      		brne .L19
 738               	.LVL88:
 739               	.L45:
 365:main.c        ****       }
 366:main.c        ****       
 367:main.c        ****       LED_MACRO( idlePolls.b[0]);   
 368:main.c        **** 
 369:main.c        ****        // Test whether another interrupt occurred during the processing of USBpoll and commands.
 370:main.c        ****        // If yes, we missed a data packet on the bus. Wait until the bus was idle for 8.8s to 
 371:main.c        ****        // allow synchronising to the next incoming packet. 
 372:main.c        ****        
 373:main.c        ****        if (USB_INTR_PENDING & (1<<USB_INTR_PENDING_BIT))  // Usbpoll() collided with data packet
 740               		.loc 1 373 0
 741 0268 0AB6      		in __tmp_reg__,0x3a
 742 026a 05FE      		sbrs __tmp_reg__,5
 743 026c 00C0      		rjmp .L46
 744               	.LBB104:
 374:main.c        ****        {        
 375:main.c        ****           uint8_t ctr;
 376:main.c        ****          
 377:main.c        ****           // loop takes 5 cycles
 378:main.c        ****           asm volatile(      
 745               		.loc 1 378 0
 746               	/* #APP */
 747               	 ;  378 "main.c" 1
 748 026e 8DE1      		         ldi  r24,29 
 749 0270 B39B      		loop717:  sbis 22,3  
 750 0272 8DE1      		         ldi  r24,29  
 751 0274 8150      		         subi r24,1   
 752 0276 01F4      		         brne loop717 
 753               		
 754               	 ;  0 "" 2
 755               	.LVL89:
GAS LISTING C:\Users\thouli\AppData\Local\Temp\cc8sA0gt.s 			page 37


 379:main.c        ****           "         ldi  %0,%1 \n\t"        
 380:main.c        ****           "loop%=:  sbis %2,%3  \n\t"        
 381:main.c        ****           "         ldi  %0,%1  \n\t"
 382:main.c        ****           "         subi %0,1   \n\t"        
 383:main.c        ****           "         brne loop%= \n\t"   
 384:main.c        ****           : "=&d" (ctr)
 385:main.c        ****           :  "M" ((uint8_t)(8.8f*(F_CPU/1.0e6f)/5.0f+0.5)), "I" (_SFR_IO_ADDR(USBIN)), "M" (USB_CFG
 386:main.c        ****           );       
 387:main.c        ****          USB_INTR_PENDING = 1<<USB_INTR_PENDING_BIT;                   
 756               		.loc 1 387 0
 757               	/* #NOAPP */
 758 0278 80E2      		ldi r24,lo8(32)
 759 027a 8ABF      		out 0x3a,r24
 760 027c 00C0      		rjmp .L46
 761               	.L19:
 762               	.LBE104:
 763               	.LBE72:
 388:main.c        ****        }                        
 389:main.c        ****     } while(1);  
 390:main.c        **** 
 391:main.c        ****     LED_EXIT();
 392:main.c        ****     
 393:main.c        ****     initHardware();  /* Disconnect micronucleus */    
 764               		.loc 1 393 0
 765 027e 00D0      		rcall initHardware
 766               	.LVL90:
 394:main.c        ****     
 395:main.c        ****     USB_INTR_ENABLE = 0;
 767               		.loc 1 395 0
 768 0280 1BBE      		out 0x3b,__zero_reg__
 396:main.c        ****     USB_INTR_CFG = 0;       /* also reset config bits */
 769               		.loc 1 396 0
 770 0282 15BA      		out 0x15,__zero_reg__
 771               	.LVL91:
 772               	.L9:
 773               	.LBB105:
 774               	.LBB106:
 245:main.c        **** 
 775               		.loc 1 245 0
 776 0284 C598      		cbi 0x18,5
 257:main.c        ****   
 777               		.loc 1 257 0
 778               	/* #APP */
 779               	 ;  257 "main.c" 1
 780 0286 00C0      		rjmp __vectors - 4
 781               	 ;  0 "" 2
 782               	/* #NOAPP */
 783               	.L48:
 784 0288 00C0      		rjmp .L48
 785               	.LBE106:
 786               	.LBE105:
 787               		.cfi_endproc
 788               	.LFE26:
 789               		.size	main, .-main
 790               	.global	configurationReply
 791               		.section	.progmem.data.configurationReply,"a",@progbits
 792               		.type	configurationReply, @object
GAS LISTING C:\Users\thouli\AppData\Local\Temp\cc8sA0gt.s 			page 38


 793               		.size	configurationReply, 6
 794               	configurationReply:
 795 0000 19        		.byte	25
 796 0001 7A        		.byte	122
 797 0002 40        		.byte	64
 798 0003 05        		.byte	5
 799 0004 93        		.byte	-109
 800 0005 0B        		.byte	11
 801               	.global	usbDescriptorConfiguration
 802               		.section	.progmem.data.usbDescriptorConfiguration,"a",@progbits
 803               		.type	usbDescriptorConfiguration, @object
 804               		.size	usbDescriptorConfiguration, 18
 805               	usbDescriptorConfiguration:
 806 0000 09        		.byte	9
 807 0001 02        		.byte	2
 808 0002 12        		.byte	18
 809 0003 00        		.byte	0
 810 0004 01        		.byte	1
 811 0005 01        		.byte	1
 812 0006 00        		.byte	0
 813 0007 80        		.byte	-128
 814 0008 32        		.byte	50
 815 0009 09        		.byte	9
 816 000a 04        		.byte	4
 817 000b 00        		.byte	0
 818 000c 00        		.byte	0
 819 000d 00        		.byte	0
 820 000e 00        		.byte	0
 821 000f 00        		.byte	0
 822 0010 00        		.byte	0
 823 0011 00        		.byte	0
 824               	.global	usbDescriptorDevice
 825               		.section	.progmem.data.usbDescriptorDevice,"a",@progbits
 826               		.type	usbDescriptorDevice, @object
 827               		.size	usbDescriptorDevice, 18
 828               	usbDescriptorDevice:
 829 0000 12        		.byte	18
 830 0001 01        		.byte	1
 831 0002 10        		.byte	16
 832 0003 01        		.byte	1
 833 0004 FF        		.byte	-1
 834 0005 00        		.byte	0
 835 0006 00        		.byte	0
 836 0007 08        		.byte	8
 837 0008 D0        		.byte	-48
 838 0009 16        		.byte	22
 839 000a 53        		.byte	83
 840 000b 07        		.byte	7
 841 000c 04        		.byte	4
 842 000d 02        		.byte	2
 843 000e 00        		.byte	0
 844 000f 00        		.byte	0
 845 0010 00        		.byte	0
 846 0011 01        		.byte	1
 847               	.global	usbDescriptorString0
 848               		.section	.progmem.data.usbDescriptorString0,"a",@progbits
 849               		.type	usbDescriptorString0, @object
GAS LISTING C:\Users\thouli\AppData\Local\Temp\cc8sA0gt.s 			page 39


 850               		.size	usbDescriptorString0, 4
 851               	usbDescriptorString0:
 852 0000 04        		.byte	4
 853 0001 03        		.byte	3
 854 0002 09        		.byte	9
 855 0003 04        		.byte	4
 856               		.section	.bss.usbMsgLen,"aw",@nobits
 857               		.type	usbMsgLen, @object
 858               		.size	usbMsgLen, 1
 859               	usbMsgLen:
 860 0000 00        		.zero	1
 861               		.comm	usbMsgPtr,2,1
 862               		.comm	usbTxBuf,11,1
 863               		.comm	usbTxLen,1,1
 864               		.comm	usbRxToken,1,1
 865               		.comm	usbCurrentTok,1,1
 866               		.comm	usbRxLen,1,1
 867               		.comm	usbConfiguration,1,1
 868               		.comm	usbNewDeviceAddr,1,1
 869               		.comm	usbDeviceAddr,1,1
 870               		.comm	usbInputBufOffset,1,1
 871               		.comm	usbRxBuf,22,1
 872               		.text
 873               	.Letext0:
 874               		.file 4 "c:\\program files (x86)\\atmel\\studio\\7.0\\toolchain\\avr8\\avr8-gnu-toolchain\\avr\\in
 875               		.file 5 "usbdrv/usbdrv.h"
 876               		.file 6 "./usbconfig.h"
 877               		.section	.debug_info,"",@progbits
 878               	.Ldebug_info0:
 879 0000 A40A 0000 		.long	0xaa4
 880 0004 0200      		.word	0x2
 881 0006 0000 0000 		.long	.Ldebug_abbrev0
 882 000a 04        		.byte	0x4
 883 000b 01        		.uleb128 0x1
 884 000c 0000 0000 		.long	.LASF89
 885 0010 0C        		.byte	0xc
 886 0011 0000 0000 		.long	.LASF90
 887 0015 0000 0000 		.long	.LASF91
 888 0019 0000 0000 		.long	.Ldebug_ranges0+0x48
 889 001d 0000 0000 		.long	0
 890 0021 0000 0000 		.long	0
 891 0025 0000 0000 		.long	.Ldebug_line0
 892 0029 02        		.uleb128 0x2
 893 002a 0000 0000 		.long	.LASF0
 894 002e 04        		.byte	0x4
 895 002f 7D        		.byte	0x7d
 896 0030 3400 0000 		.long	0x34
 897 0034 03        		.uleb128 0x3
 898 0035 01        		.byte	0x1
 899 0036 06        		.byte	0x6
 900 0037 0000 0000 		.long	.LASF2
 901 003b 02        		.uleb128 0x2
 902 003c 0000 0000 		.long	.LASF1
 903 0040 04        		.byte	0x4
 904 0041 7E        		.byte	0x7e
 905 0042 4600 0000 		.long	0x46
 906 0046 03        		.uleb128 0x3
GAS LISTING C:\Users\thouli\AppData\Local\Temp\cc8sA0gt.s 			page 40


 907 0047 01        		.byte	0x1
 908 0048 08        		.byte	0x8
 909 0049 0000 0000 		.long	.LASF3
 910 004d 04        		.uleb128 0x4
 911 004e 02        		.byte	0x2
 912 004f 05        		.byte	0x5
 913 0050 696E 7400 		.string	"int"
 914 0054 02        		.uleb128 0x2
 915 0055 0000 0000 		.long	.LASF4
 916 0059 04        		.byte	0x4
 917 005a 80        		.byte	0x80
 918 005b 5F00 0000 		.long	0x5f
 919 005f 03        		.uleb128 0x3
 920 0060 02        		.byte	0x2
 921 0061 07        		.byte	0x7
 922 0062 0000 0000 		.long	.LASF5
 923 0066 03        		.uleb128 0x3
 924 0067 04        		.byte	0x4
 925 0068 05        		.byte	0x5
 926 0069 0000 0000 		.long	.LASF6
 927 006d 02        		.uleb128 0x2
 928 006e 0000 0000 		.long	.LASF7
 929 0072 04        		.byte	0x4
 930 0073 82        		.byte	0x82
 931 0074 7800 0000 		.long	0x78
 932 0078 03        		.uleb128 0x3
 933 0079 04        		.byte	0x4
 934 007a 07        		.byte	0x7
 935 007b 0000 0000 		.long	.LASF8
 936 007f 03        		.uleb128 0x3
 937 0080 08        		.byte	0x8
 938 0081 05        		.byte	0x5
 939 0082 0000 0000 		.long	.LASF9
 940 0086 03        		.uleb128 0x3
 941 0087 08        		.byte	0x8
 942 0088 07        		.byte	0x7
 943 0089 0000 0000 		.long	.LASF10
 944 008d 03        		.uleb128 0x3
 945 008e 04        		.byte	0x4
 946 008f 04        		.byte	0x4
 947 0090 0000 0000 		.long	.LASF11
 948 0094 05        		.uleb128 0x5
 949 0095 4600 0000 		.long	0x46
 950 0099 06        		.uleb128 0x6
 951 009a 4600 0000 		.long	0x46
 952 009e A900 0000 		.long	0xa9
 953 00a2 07        		.uleb128 0x7
 954 00a3 A900 0000 		.long	0xa9
 955 00a7 0A        		.byte	0xa
 956 00a8 00        		.byte	0
 957 00a9 03        		.uleb128 0x3
 958 00aa 02        		.byte	0x2
 959 00ab 07        		.byte	0x7
 960 00ac 0000 0000 		.long	.LASF12
 961 00b0 08        		.uleb128 0x8
 962 00b1 0000 0000 		.long	.LASF92
 963 00b5 02        		.byte	0x2
GAS LISTING C:\Users\thouli\AppData\Local\Temp\cc8sA0gt.s 			page 41


 964 00b6 05        		.byte	0x5
 965 00b7 9D02      		.word	0x29d
 966 00b9 D600 0000 		.long	0xd6
 967 00bd 09        		.uleb128 0x9
 968 00be 0000 0000 		.long	.LASF13
 969 00c2 05        		.byte	0x5
 970 00c3 9E02      		.word	0x29e
 971 00c5 5F00 0000 		.long	0x5f
 972 00c9 09        		.uleb128 0x9
 973 00ca 0000 0000 		.long	.LASF14
 974 00ce 05        		.byte	0x5
 975 00cf 9F02      		.word	0x29f
 976 00d1 D600 0000 		.long	0xd6
 977 00d5 00        		.byte	0
 978 00d6 06        		.uleb128 0x6
 979 00d7 4600 0000 		.long	0x46
 980 00db E600 0000 		.long	0xe6
 981 00df 07        		.uleb128 0x7
 982 00e0 A900 0000 		.long	0xa9
 983 00e4 01        		.byte	0x1
 984 00e5 00        		.byte	0
 985 00e6 0A        		.uleb128 0xa
 986 00e7 0000 0000 		.long	.LASF15
 987 00eb 05        		.byte	0x5
 988 00ec A002      		.word	0x2a0
 989 00ee B000 0000 		.long	0xb0
 990 00f2 0B        		.uleb128 0xb
 991 00f3 0000 0000 		.long	.LASF93
 992 00f7 08        		.byte	0x8
 993 00f8 05        		.byte	0x5
 994 00f9 A202      		.word	0x2a2
 995 00fb 4B01 0000 		.long	0x14b
 996 00ff 0C        		.uleb128 0xc
 997 0100 0000 0000 		.long	.LASF16
 998 0104 05        		.byte	0x5
 999 0105 A302      		.word	0x2a3
 1000 0107 4600 0000 		.long	0x46
 1001 010b 02        		.byte	0x2
 1002 010c 23        		.byte	0x23
 1003 010d 00        		.uleb128 0
 1004 010e 0C        		.uleb128 0xc
 1005 010f 0000 0000 		.long	.LASF17
 1006 0113 05        		.byte	0x5
 1007 0114 A402      		.word	0x2a4
 1008 0116 4600 0000 		.long	0x46
 1009 011a 02        		.byte	0x2
 1010 011b 23        		.byte	0x23
 1011 011c 01        		.uleb128 0x1
 1012 011d 0C        		.uleb128 0xc
 1013 011e 0000 0000 		.long	.LASF18
 1014 0122 05        		.byte	0x5
 1015 0123 A502      		.word	0x2a5
 1016 0125 E600 0000 		.long	0xe6
 1017 0129 02        		.byte	0x2
 1018 012a 23        		.byte	0x23
 1019 012b 02        		.uleb128 0x2
 1020 012c 0C        		.uleb128 0xc
GAS LISTING C:\Users\thouli\AppData\Local\Temp\cc8sA0gt.s 			page 42


 1021 012d 0000 0000 		.long	.LASF19
 1022 0131 05        		.byte	0x5
 1023 0132 A602      		.word	0x2a6
 1024 0134 E600 0000 		.long	0xe6
 1025 0138 02        		.byte	0x2
 1026 0139 23        		.byte	0x23
 1027 013a 04        		.uleb128 0x4
 1028 013b 0C        		.uleb128 0xc
 1029 013c 0000 0000 		.long	.LASF20
 1030 0140 05        		.byte	0x5
 1031 0141 A702      		.word	0x2a7
 1032 0143 E600 0000 		.long	0xe6
 1033 0147 02        		.byte	0x2
 1034 0148 23        		.byte	0x23
 1035 0149 06        		.uleb128 0x6
 1036 014a 00        		.byte	0
 1037 014b 0A        		.uleb128 0xa
 1038 014c 0000 0000 		.long	.LASF21
 1039 0150 05        		.byte	0x5
 1040 0151 A802      		.word	0x2a8
 1041 0153 F200 0000 		.long	0xf2
 1042 0157 0D        		.uleb128 0xd
 1043 0158 02        		.byte	0x2
 1044 0159 01        		.byte	0x1
 1045 015a 41        		.byte	0x41
 1046 015b 7201 0000 		.long	0x172
 1047 015f 0E        		.uleb128 0xe
 1048 0160 7700      		.string	"w"
 1049 0162 01        		.byte	0x1
 1050 0163 42        		.byte	0x42
 1051 0164 5400 0000 		.long	0x54
 1052 0168 0E        		.uleb128 0xe
 1053 0169 6200      		.string	"b"
 1054 016b 01        		.byte	0x1
 1055 016c 43        		.byte	0x43
 1056 016d 7201 0000 		.long	0x172
 1057 0171 00        		.byte	0
 1058 0172 06        		.uleb128 0x6
 1059 0173 3B00 0000 		.long	0x3b
 1060 0177 8201 0000 		.long	0x182
 1061 017b 07        		.uleb128 0x7
 1062 017c A900 0000 		.long	0xa9
 1063 0180 01        		.byte	0x1
 1064 0181 00        		.byte	0
 1065 0182 02        		.uleb128 0x2
 1066 0183 0000 0000 		.long	.LASF22
 1067 0187 01        		.byte	0x1
 1068 0188 44        		.byte	0x44
 1069 0189 5701 0000 		.long	0x157
 1070 018d 0F        		.uleb128 0xf
 1071 018e 02        		.byte	0x2
 1072 018f 5F00 0000 		.long	0x5f
 1073 0193 01        		.byte	0x1
 1074 0194 4E        		.byte	0x4e
 1075 0195 C401 0000 		.long	0x1c4
 1076 0199 10        		.uleb128 0x10
 1077 019a 0000 0000 		.long	.LASF23
GAS LISTING C:\Users\thouli\AppData\Local\Temp\cc8sA0gt.s 			page 43


 1078 019e 00        		.byte	0
 1079 019f 10        		.uleb128 0x10
 1080 01a0 0000 0000 		.long	.LASF24
 1081 01a4 00        		.byte	0
 1082 01a5 10        		.uleb128 0x10
 1083 01a6 0000 0000 		.long	.LASF25
 1084 01aa 01        		.byte	0x1
 1085 01ab 10        		.uleb128 0x10
 1086 01ac 0000 0000 		.long	.LASF26
 1087 01b0 02        		.byte	0x2
 1088 01b1 10        		.uleb128 0x10
 1089 01b2 0000 0000 		.long	.LASF27
 1090 01b6 03        		.byte	0x3
 1091 01b7 10        		.uleb128 0x10
 1092 01b8 0000 0000 		.long	.LASF28
 1093 01bc 04        		.byte	0x4
 1094 01bd 10        		.uleb128 0x10
 1095 01be 0000 0000 		.long	.LASF29
 1096 01c2 40        		.byte	0x40
 1097 01c3 00        		.byte	0
 1098 01c4 11        		.uleb128 0x11
 1099 01c5 0000 0000 		.long	.LASF38
 1100 01c9 03        		.byte	0x3
 1101 01ca 5001      		.word	0x150
 1102 01cc 01        		.byte	0x1
 1103 01cd 4600 0000 		.long	0x46
 1104 01d1 03        		.byte	0x3
 1105 01d2 1602 0000 		.long	0x216
 1106 01d6 12        		.uleb128 0x12
 1107 01d7 7271 00   		.string	"rq"
 1108 01da 03        		.byte	0x3
 1109 01db 5001      		.word	0x150
 1110 01dd 1602 0000 		.long	0x216
 1111 01e1 13        		.uleb128 0x13
 1112 01e2 6C65 6E00 		.string	"len"
 1113 01e6 03        		.byte	0x3
 1114 01e7 5201      		.word	0x152
 1115 01e9 4600 0000 		.long	0x46
 1116 01ed 14        		.uleb128 0x14
 1117 01ee 0000 0000 		.long	.LASF30
 1118 01f2 03        		.byte	0x3
 1119 01f3 5301      		.word	0x153
 1120 01f5 4600 0000 		.long	0x46
 1121 01f9 15        		.uleb128 0x15
 1122 01fa 14        		.uleb128 0x14
 1123 01fb 0000 0000 		.long	.LASF31
 1124 01ff 03        		.byte	0x3
 1125 0200 5501      		.word	0x155
 1126 0202 4600 0000 		.long	0x46
 1127 0206 15        		.uleb128 0x15
 1128 0207 14        		.uleb128 0x14
 1129 0208 0000 0000 		.long	.LASF31
 1130 020c 03        		.byte	0x3
 1131 020d 6001      		.word	0x160
 1132 020f 4600 0000 		.long	0x46
 1133 0213 00        		.byte	0
 1134 0214 00        		.byte	0
GAS LISTING C:\Users\thouli\AppData\Local\Temp\cc8sA0gt.s 			page 44


 1135 0215 00        		.byte	0
 1136 0216 16        		.uleb128 0x16
 1137 0217 02        		.byte	0x2
 1138 0218 4B01 0000 		.long	0x14b
 1139 021c 17        		.uleb128 0x17
 1140 021d 0000 0000 		.long	.LASF32
 1141 0221 03        		.byte	0x3
 1142 0222 E7        		.byte	0xe7
 1143 0223 01        		.byte	0x1
 1144 0224 03        		.byte	0x3
 1145 0225 17        		.uleb128 0x17
 1146 0226 0000 0000 		.long	.LASF33
 1147 022a 03        		.byte	0x3
 1148 022b DD        		.byte	0xdd
 1149 022c 01        		.byte	0x1
 1150 022d 03        		.byte	0x3
 1151 022e 18        		.uleb128 0x18
 1152 022f 0000 0000 		.long	.LASF45
 1153 0233 02        		.byte	0x2
 1154 0234 A6        		.byte	0xa6
 1155 0235 01        		.byte	0x1
 1156 0236 03        		.byte	0x3
 1157 0237 6702 0000 		.long	0x267
 1158 023b 19        		.uleb128 0x19
 1159 023c 0000 0000 		.long	.LASF34
 1160 0240 02        		.byte	0x2
 1161 0241 A6        		.byte	0xa6
 1162 0242 6702 0000 		.long	0x267
 1163 0246 1A        		.uleb128 0x1a
 1164 0247 0000 0000 		.long	.LASF35
 1165 024b 02        		.byte	0x2
 1166 024c A8        		.byte	0xa8
 1167 024d 6702 0000 		.long	0x267
 1168 0251 1A        		.uleb128 0x1a
 1169 0252 0000 0000 		.long	.LASF36
 1170 0256 02        		.byte	0x2
 1171 0257 AC        		.byte	0xac
 1172 0258 6D00 0000 		.long	0x6d
 1173 025c 1B        		.uleb128 0x1b
 1174 025d 01        		.byte	0x1
 1175 025e 0000 0000 		.long	.LASF94
 1176 0262 02        		.byte	0x2
 1177 0263 AD        		.byte	0xad
 1178 0264 01        		.byte	0x1
 1179 0265 00        		.byte	0
 1180 0266 00        		.byte	0
 1181 0267 03        		.uleb128 0x3
 1182 0268 04        		.byte	0x4
 1183 0269 04        		.byte	0x4
 1184 026a 0000 0000 		.long	.LASF37
 1185 026e 11        		.uleb128 0x11
 1186 026f 0000 0000 		.long	.LASF39
 1187 0273 03        		.byte	0x3
 1188 0274 8701      		.word	0x187
 1189 0276 01        		.byte	0x1
 1190 0277 4600 0000 		.long	0x46
 1191 027b 03        		.byte	0x3
GAS LISTING C:\Users\thouli\AppData\Local\Temp\cc8sA0gt.s 			page 45


 1192 027c D402 0000 		.long	0x2d4
 1193 0280 12        		.uleb128 0x12
 1194 0281 7271 00   		.string	"rq"
 1195 0284 03        		.byte	0x3
 1196 0285 8701      		.word	0x187
 1197 0287 1602 0000 		.long	0x216
 1198 028b 13        		.uleb128 0x13
 1199 028c 6C65 6E00 		.string	"len"
 1200 0290 03        		.byte	0x3
 1201 0291 8901      		.word	0x189
 1202 0293 4600 0000 		.long	0x46
 1203 0297 14        		.uleb128 0x14
 1204 0298 0000 0000 		.long	.LASF40
 1205 029c 03        		.byte	0x3
 1206 029d 8A01      		.word	0x18a
 1207 029f D402 0000 		.long	0x2d4
 1208 02a3 14        		.uleb128 0x14
 1209 02a4 0000 0000 		.long	.LASF41
 1210 02a8 03        		.byte	0x3
 1211 02a9 8B01      		.word	0x18b
 1212 02ab 4600 0000 		.long	0x46
 1213 02af 1C        		.uleb128 0x1c
 1214 02b0 0000 0000 		.long	.LASF95
 1215 02b4 03        		.byte	0x3
 1216 02b5 BA01      		.word	0x1ba
 1217 02b7 15        		.uleb128 0x15
 1218 02b8 14        		.uleb128 0x14
 1219 02b9 0000 0000 		.long	.LASF31
 1220 02bd 03        		.byte	0x3
 1221 02be 9101      		.word	0x191
 1222 02c0 4600 0000 		.long	0x46
 1223 02c4 15        		.uleb128 0x15
 1224 02c5 14        		.uleb128 0x14
 1225 02c6 0000 0000 		.long	.LASF42
 1226 02ca 03        		.byte	0x3
 1227 02cb 9301      		.word	0x193
 1228 02cd 4600 0000 		.long	0x46
 1229 02d1 00        		.byte	0
 1230 02d2 00        		.byte	0
 1231 02d3 00        		.byte	0
 1232 02d4 16        		.uleb128 0x16
 1233 02d5 02        		.byte	0x2
 1234 02d6 4600 0000 		.long	0x46
 1235 02da 1D        		.uleb128 0x1d
 1236 02db 0000 0000 		.long	.LASF43
 1237 02df 01        		.byte	0x1
 1238 02e0 AE        		.byte	0xae
 1239 02e1 01        		.byte	0x1
 1240 02e2 3B00 0000 		.long	0x3b
 1241 02e6 01        		.byte	0x1
 1242 02e7 0103 0000 		.long	0x301
 1243 02eb 19        		.uleb128 0x19
 1244 02ec 0000 0000 		.long	.LASF44
 1245 02f0 01        		.byte	0x1
 1246 02f1 AE        		.byte	0xae
 1247 02f2 0103 0000 		.long	0x301
 1248 02f6 1E        		.uleb128 0x1e
GAS LISTING C:\Users\thouli\AppData\Local\Temp\cc8sA0gt.s 			page 46


 1249 02f7 7271 00   		.string	"rq"
 1250 02fa 01        		.byte	0x1
 1251 02fb AF        		.byte	0xaf
 1252 02fc 1602 0000 		.long	0x216
 1253 0300 00        		.byte	0
 1254 0301 16        		.uleb128 0x16
 1255 0302 02        		.byte	0x2
 1256 0303 3B00 0000 		.long	0x3b
 1257 0307 1F        		.uleb128 0x1f
 1258 0308 0000 0000 		.long	.LASF46
 1259 030c 03        		.byte	0x3
 1260 030d C401      		.word	0x1c4
 1261 030f 01        		.byte	0x1
 1262 0310 03        		.byte	0x3
 1263 0311 5303 0000 		.long	0x353
 1264 0315 20        		.uleb128 0x20
 1265 0316 0000 0000 		.long	.LASF44
 1266 031a 03        		.byte	0x3
 1267 031b C401      		.word	0x1c4
 1268 031d D402 0000 		.long	0x2d4
 1269 0321 12        		.uleb128 0x12
 1270 0322 6C65 6E00 		.string	"len"
 1271 0326 03        		.byte	0x3
 1272 0327 C401      		.word	0x1c4
 1273 0329 4600 0000 		.long	0x46
 1274 032d 13        		.uleb128 0x13
 1275 032e 7271 00   		.string	"rq"
 1276 0331 03        		.byte	0x3
 1277 0332 C601      		.word	0x1c6
 1278 0334 1602 0000 		.long	0x216
 1279 0338 15        		.uleb128 0x15
 1280 0339 14        		.uleb128 0x14
 1281 033a 0000 0000 		.long	.LASF47
 1282 033e 03        		.byte	0x3
 1283 033f D801      		.word	0x1d8
 1284 0341 4600 0000 		.long	0x46
 1285 0345 14        		.uleb128 0x14
 1286 0346 0000 0000 		.long	.LASF48
 1287 034a 03        		.byte	0x3
 1288 034b DE01      		.word	0x1de
 1289 034d 4600 0000 		.long	0x46
 1290 0351 00        		.byte	0
 1291 0352 00        		.byte	0
 1292 0353 11        		.uleb128 0x11
 1293 0354 0000 0000 		.long	.LASF49
 1294 0358 03        		.byte	0x3
 1295 0359 0C02      		.word	0x20c
 1296 035b 01        		.byte	0x1
 1297 035c 4600 0000 		.long	0x46
 1298 0360 01        		.byte	0x1
 1299 0361 BA03 0000 		.long	0x3ba
 1300 0365 20        		.uleb128 0x20
 1301 0366 0000 0000 		.long	.LASF44
 1302 036a 03        		.byte	0x3
 1303 036b 0C02      		.word	0x20c
 1304 036d D402 0000 		.long	0x2d4
 1305 0371 12        		.uleb128 0x12
GAS LISTING C:\Users\thouli\AppData\Local\Temp\cc8sA0gt.s 			page 47


 1306 0372 6C65 6E00 		.string	"len"
 1307 0376 03        		.byte	0x3
 1308 0377 0C02      		.word	0x20c
 1309 0379 4600 0000 		.long	0x46
 1310 037d 15        		.uleb128 0x15
 1311 037e 13        		.uleb128 0x13
 1312 037f 6900      		.string	"i"
 1313 0381 03        		.byte	0x3
 1314 0382 1502      		.word	0x215
 1315 0384 4600 0000 		.long	0x46
 1316 0388 13        		.uleb128 0x13
 1317 0389 7200      		.string	"r"
 1318 038b 03        		.byte	0x3
 1319 038c 1602      		.word	0x216
 1320 038e D402 0000 		.long	0x2d4
 1321 0392 15        		.uleb128 0x15
 1322 0393 13        		.uleb128 0x13
 1323 0394 6300      		.string	"c"
 1324 0396 03        		.byte	0x3
 1325 0397 1B02      		.word	0x21b
 1326 0399 4600 0000 		.long	0x46
 1327 039d 15        		.uleb128 0x15
 1328 039e 14        		.uleb128 0x14
 1329 039f 0000 0000 		.long	.LASF50
 1330 03a3 03        		.byte	0x3
 1331 03a4 1B02      		.word	0x21b
 1332 03a6 5400 0000 		.long	0x54
 1333 03aa 14        		.uleb128 0x14
 1334 03ab 0000 0000 		.long	.LASF51
 1335 03af 03        		.byte	0x3
 1336 03b0 1B02      		.word	0x21b
 1337 03b2 3B00 0000 		.long	0x3b
 1338 03b6 00        		.byte	0
 1339 03b7 00        		.byte	0
 1340 03b8 00        		.byte	0
 1341 03b9 00        		.byte	0
 1342 03ba 21        		.uleb128 0x21
 1343 03bb 0000 0000 		.long	.LASF53
 1344 03bf 01        		.byte	0x1
 1345 03c0 92        		.byte	0x92
 1346 03c1 01        		.byte	0x1
 1347 03c2 0000 0000 		.long	.LFB22
 1348 03c6 0000 0000 		.long	.LFE22
 1349 03ca 03        		.byte	0x3
 1350 03cb 92        		.byte	0x92
 1351 03cc 20        		.uleb128 0x20
 1352 03cd 02        		.sleb128 2
 1353 03ce 01        		.byte	0x1
 1354 03cf E303 0000 		.long	0x3e3
 1355 03d3 22        		.uleb128 0x22
 1356 03d4 0000 0000 		.long	.LASF44
 1357 03d8 01        		.byte	0x1
 1358 03d9 92        		.byte	0x92
 1359 03da 5400 0000 		.long	0x54
 1360 03de 0000 0000 		.long	.LLST0
 1361 03e2 00        		.byte	0
 1362 03e3 23        		.uleb128 0x23
GAS LISTING C:\Users\thouli\AppData\Local\Temp\cc8sA0gt.s 			page 48


 1363 03e4 0000 0000 		.long	.LASF52
 1364 03e8 03        		.byte	0x3
 1365 03e9 8702      		.word	0x287
 1366 03eb 01        		.byte	0x1
 1367 03ec 01        		.byte	0x1
 1368 03ed 21        		.uleb128 0x21
 1369 03ee 0000 0000 		.long	.LASF54
 1370 03f2 01        		.byte	0x1
 1371 03f3 D6        		.byte	0xd6
 1372 03f4 01        		.byte	0x1
 1373 03f5 0000 0000 		.long	.LFB24
 1374 03f9 0000 0000 		.long	.LFE24
 1375 03fd 03        		.byte	0x3
 1376 03fe 92        		.byte	0x92
 1377 03ff 20        		.uleb128 0x20
 1378 0400 02        		.sleb128 2
 1379 0401 01        		.byte	0x1
 1380 0402 4F04 0000 		.long	0x44f
 1381 0406 24        		.uleb128 0x24
 1382 0407 2E02 0000 		.long	0x22e
 1383 040b 0000 0000 		.long	.LBB30
 1384 040f 0000 0000 		.long	.LBE30
 1385 0413 01        		.byte	0x1
 1386 0414 EA        		.byte	0xea
 1387 0415 3F04 0000 		.long	0x43f
 1388 0419 25        		.uleb128 0x25
 1389 041a 3B02 0000 		.long	0x23b
 1390 041e 0000 0000 		.long	.LLST1
 1391 0422 26        		.uleb128 0x26
 1392 0423 0000 0000 		.long	.LBB31
 1393 0427 0000 0000 		.long	.LBE31
 1394 042b 27        		.uleb128 0x27
 1395 042c 4602 0000 		.long	0x246
 1396 0430 0000 0000 		.long	.LLST2
 1397 0434 27        		.uleb128 0x27
 1398 0435 5102 0000 		.long	0x251
 1399 0439 0000 0000 		.long	.LLST3
 1400 043d 00        		.byte	0
 1401 043e 00        		.byte	0
 1402 043f 28        		.uleb128 0x28
 1403 0440 E303 0000 		.long	0x3e3
 1404 0444 0000 0000 		.long	.LBB32
 1405 0448 0000 0000 		.long	.LBE32
 1406 044c 01        		.byte	0x1
 1407 044d ED        		.byte	0xed
 1408 044e 00        		.byte	0
 1409 044f 18        		.uleb128 0x18
 1410 0450 0000 0000 		.long	.LASF55
 1411 0454 01        		.byte	0x1
 1412 0455 6F        		.byte	0x6f
 1413 0456 01        		.byte	0x1
 1414 0457 03        		.byte	0x3
 1415 0458 6804 0000 		.long	0x468
 1416 045c 1E        		.uleb128 0x1e
 1417 045d 7074 7200 		.string	"ptr"
 1418 0461 01        		.byte	0x1
 1419 0462 70        		.byte	0x70
GAS LISTING C:\Users\thouli\AppData\Local\Temp\cc8sA0gt.s 			page 49


 1420 0463 5400 0000 		.long	0x54
 1421 0467 00        		.byte	0
 1422 0468 17        		.uleb128 0x17
 1423 0469 0000 0000 		.long	.LASF56
 1424 046d 01        		.byte	0x1
 1425 046e 84        		.byte	0x84
 1426 046f 01        		.byte	0x1
 1427 0470 03        		.byte	0x3
 1428 0471 1F        		.uleb128 0x1f
 1429 0472 0000 0000 		.long	.LASF57
 1430 0476 03        		.byte	0x3
 1431 0477 3202      		.word	0x232
 1432 0479 01        		.byte	0x1
 1433 047a 03        		.byte	0x3
 1434 047b 9804 0000 		.long	0x498
 1435 047f 14        		.uleb128 0x14
 1436 0480 0000 0000 		.long	.LASF58
 1437 0484 03        		.byte	0x3
 1438 0485 3402      		.word	0x234
 1439 0487 4600 0000 		.long	0x46
 1440 048b 13        		.uleb128 0x13
 1441 048c 6C65 6E00 		.string	"len"
 1442 0490 03        		.byte	0x3
 1443 0491 3502      		.word	0x235
 1444 0493 4600 0000 		.long	0x46
 1445 0497 00        		.byte	0
 1446 0498 29        		.uleb128 0x29
 1447 0499 0000 0000 		.long	.LASF96
 1448 049d 01        		.byte	0x1
 1449 049e F3        		.byte	0xf3
 1450 049f 01        		.byte	0x1
 1451 04a0 01        		.byte	0x1
 1452 04a1 03        		.byte	0x3
 1453 04a2 2A        		.uleb128 0x2a
 1454 04a3 01        		.byte	0x1
 1455 04a4 0000 0000 		.long	.LASF97
 1456 04a8 01        		.byte	0x1
 1457 04a9 0701      		.word	0x107
 1458 04ab 01        		.byte	0x1
 1459 04ac 4D00 0000 		.long	0x4d
 1460 04b0 01        		.byte	0x1
 1461 04b1 0000 0000 		.long	.LFB26
 1462 04b5 0000 0000 		.long	.LFE26
 1463 04b9 03        		.byte	0x3
 1464 04ba 92        		.byte	0x92
 1465 04bb 20        		.uleb128 0x20
 1466 04bc 02        		.sleb128 2
 1467 04bd 01        		.byte	0x1
 1468 04be 7808 0000 		.long	0x878
 1469 04c2 14        		.uleb128 0x14
 1470 04c3 0000 0000 		.long	.LASF59
 1471 04c7 01        		.byte	0x1
 1472 04c8 0801      		.word	0x108
 1473 04ca 3B00 0000 		.long	0x3b
 1474 04ce 2B        		.uleb128 0x2b
 1475 04cf 0000 0000 		.long	.LASF60
 1476 04d3 01        		.byte	0x1
GAS LISTING C:\Users\thouli\AppData\Local\Temp\cc8sA0gt.s 			page 50


 1477 04d4 1301      		.word	0x113
 1478 04d6 4600 0000 		.long	0x46
 1479 04da 0000 0000 		.long	.LLST4
 1480 04de 2C        		.uleb128 0x2c
 1481 04df 2E02 0000 		.long	0x22e
 1482 04e3 0000 0000 		.long	.LBB68
 1483 04e7 0000 0000 		.long	.LBE68
 1484 04eb 01        		.byte	0x1
 1485 04ec 0A01      		.word	0x10a
 1486 04ee 1805 0000 		.long	0x518
 1487 04f2 25        		.uleb128 0x25
 1488 04f3 3B02 0000 		.long	0x23b
 1489 04f7 0000 0000 		.long	.LLST5
 1490 04fb 26        		.uleb128 0x26
 1491 04fc 0000 0000 		.long	.LBB69
 1492 0500 0000 0000 		.long	.LBE69
 1493 0504 27        		.uleb128 0x27
 1494 0505 4602 0000 		.long	0x246
 1495 0509 0000 0000 		.long	.LLST6
 1496 050d 27        		.uleb128 0x27
 1497 050e 5102 0000 		.long	0x251
 1498 0512 0000 0000 		.long	.LLST7
 1499 0516 00        		.byte	0
 1500 0517 00        		.byte	0
 1501 0518 2D        		.uleb128 0x2d
 1502 0519 0000 0000 		.long	.LBB70
 1503 051d 0000 0000 		.long	.LBE70
 1504 0521 4405 0000 		.long	0x544
 1505 0525 2E        		.uleb128 0x2e
 1506 0526 0000 0000 		.long	.LASF50
 1507 052a 01        		.byte	0x1
 1508 052b 1301      		.word	0x113
 1509 052d 5400 0000 		.long	0x54
 1510 0531 7A19      		.word	0x197a
 1511 0533 2B        		.uleb128 0x2b
 1512 0534 0000 0000 		.long	.LASF51
 1513 0538 01        		.byte	0x1
 1514 0539 1301      		.word	0x113
 1515 053b 3B00 0000 		.long	0x3b
 1516 053f 0000 0000 		.long	.LLST4
 1517 0543 00        		.byte	0
 1518 0544 2D        		.uleb128 0x2d
 1519 0545 0000 0000 		.long	.LBB71
 1520 0549 0000 0000 		.long	.LBE71
 1521 054d 7205 0000 		.long	0x572
 1522 0551 2B        		.uleb128 0x2b
 1523 0552 0000 0000 		.long	.LASF50
 1524 0556 01        		.byte	0x1
 1525 0557 1A01      		.word	0x11a
 1526 0559 5400 0000 		.long	0x54
 1527 055d 0000 0000 		.long	.LLST9
 1528 0561 2B        		.uleb128 0x2b
 1529 0562 0000 0000 		.long	.LASF51
 1530 0566 01        		.byte	0x1
 1531 0567 1A01      		.word	0x11a
 1532 0569 3B00 0000 		.long	0x3b
 1533 056d 0000 0000 		.long	.LLST10
GAS LISTING C:\Users\thouli\AppData\Local\Temp\cc8sA0gt.s 			page 51


 1534 0571 00        		.byte	0
 1535 0572 2D        		.uleb128 0x2d
 1536 0573 0000 0000 		.long	.LBB72
 1537 0577 0000 0000 		.long	.LBE72
 1538 057b 5508 0000 		.long	0x855
 1539 057f 2B        		.uleb128 0x2b
 1540 0580 0000 0000 		.long	.LASF61
 1541 0584 01        		.byte	0x1
 1542 0585 2C01      		.word	0x12c
 1543 0587 5400 0000 		.long	0x54
 1544 058b 0000 0000 		.long	.LLST11
 1545 058f 2B        		.uleb128 0x2b
 1546 0590 0000 0000 		.long	.LASF62
 1547 0594 01        		.byte	0x1
 1548 0595 2D01      		.word	0x12d
 1549 0597 3B00 0000 		.long	0x3b
 1550 059b 0000 0000 		.long	.LLST12
 1551 059f 2C        		.uleb128 0x2c
 1552 05a0 4F04 0000 		.long	0x44f
 1553 05a4 0000 0000 		.long	.LBB73
 1554 05a8 0000 0000 		.long	.LBE73
 1555 05ac 01        		.byte	0x1
 1556 05ad 4A01      		.word	0x14a
 1557 05af C705 0000 		.long	0x5c7
 1558 05b3 26        		.uleb128 0x26
 1559 05b4 0000 0000 		.long	.LBB74
 1560 05b8 0000 0000 		.long	.LBE74
 1561 05bc 27        		.uleb128 0x27
 1562 05bd 5C04 0000 		.long	0x45c
 1563 05c1 0000 0000 		.long	.LLST13
 1564 05c5 00        		.byte	0
 1565 05c6 00        		.byte	0
 1566 05c7 2F        		.uleb128 0x2f
 1567 05c8 6804 0000 		.long	0x468
 1568 05cc 0000 0000 		.long	.LBB75
 1569 05d0 0000 0000 		.long	.LBE75
 1570 05d4 01        		.byte	0x1
 1571 05d5 4C01      		.word	0x14c
 1572 05d7 2D        		.uleb128 0x2d
 1573 05d8 0000 0000 		.long	.LBB77
 1574 05dc 0000 0000 		.long	.LBE77
 1575 05e0 FA07 0000 		.long	0x7fa
 1576 05e4 30        		.uleb128 0x30
 1577 05e5 6C65 6E00 		.string	"len"
 1578 05e9 01        		.byte	0x1
 1579 05ea 5901      		.word	0x159
 1580 05ec 2900 0000 		.long	0x29
 1581 05f0 0000 0000 		.long	.LLST14
 1582 05f4 2C        		.uleb128 0x2c
 1583 05f5 0703 0000 		.long	0x307
 1584 05f9 0000 0000 		.long	.LBB78
 1585 05fd 0000 0000 		.long	.LBE78
 1586 0601 01        		.byte	0x1
 1587 0602 5D01      		.word	0x15d
 1588 0604 3C07 0000 		.long	0x73c
 1589 0608 31        		.uleb128 0x31
 1590 0609 1503 0000 		.long	0x315
GAS LISTING C:\Users\thouli\AppData\Local\Temp\cc8sA0gt.s 			page 52


 1591 060d 25        		.uleb128 0x25
 1592 060e 2103 0000 		.long	0x321
 1593 0612 0000 0000 		.long	.LLST15
 1594 0616 26        		.uleb128 0x26
 1595 0617 0000 0000 		.long	.LBB79
 1596 061b 0000 0000 		.long	.LBE79
 1597 061f 32        		.uleb128 0x32
 1598 0620 2D03 0000 		.long	0x32d
 1599 0624 26        		.uleb128 0x26
 1600 0625 0000 0000 		.long	.LBB80
 1601 0629 0000 0000 		.long	.LBE80
 1602 062d 27        		.uleb128 0x27
 1603 062e 3903 0000 		.long	0x339
 1604 0632 0000 0000 		.long	.LLST16
 1605 0636 27        		.uleb128 0x27
 1606 0637 4503 0000 		.long	0x345
 1607 063b 0000 0000 		.long	.LLST17
 1608 063f 2C        		.uleb128 0x2c
 1609 0640 DA02 0000 		.long	0x2da
 1610 0644 0000 0000 		.long	.LBB81
 1611 0648 0000 0000 		.long	.LBE81
 1612 064c 03        		.byte	0x3
 1613 064d E001      		.word	0x1e0
 1614 064f 7A06 0000 		.long	0x67a
 1615 0653 31        		.uleb128 0x31
 1616 0654 EB02 0000 		.long	0x2eb
 1617 0658 26        		.uleb128 0x26
 1618 0659 0000 0000 		.long	.LBB82
 1619 065d 0000 0000 		.long	.LBE82
 1620 0661 32        		.uleb128 0x32
 1621 0662 F602 0000 		.long	0x2f6
 1622 0666 33        		.uleb128 0x33
 1623 0667 0000 0000 		.long	.LVL37
 1624 066b BA03 0000 		.long	0x3ba
 1625 066f 33        		.uleb128 0x33
 1626 0670 0000 0000 		.long	.LVL38
 1627 0674 BA03 0000 		.long	0x3ba
 1628 0678 00        		.byte	0
 1629 0679 00        		.byte	0
 1630 067a 34        		.uleb128 0x34
 1631 067b 6E02 0000 		.long	0x26e
 1632 067f 0000 0000 		.long	.LBB83
 1633 0683 0000 0000 		.long	.LBE83
 1634 0687 03        		.byte	0x3
 1635 0688 E201      		.word	0x1e2
 1636 068a 31        		.uleb128 0x31
 1637 068b 8002 0000 		.long	0x280
 1638 068f 26        		.uleb128 0x26
 1639 0690 0000 0000 		.long	.LBB84
 1640 0694 0000 0000 		.long	.LBE84
 1641 0698 27        		.uleb128 0x27
 1642 0699 8B02 0000 		.long	0x28b
 1643 069d 0000 0000 		.long	.LLST18
 1644 06a1 27        		.uleb128 0x27
 1645 06a2 9702 0000 		.long	0x297
 1646 06a6 0000 0000 		.long	.LLST19
 1647 06aa 27        		.uleb128 0x27
GAS LISTING C:\Users\thouli\AppData\Local\Temp\cc8sA0gt.s 			page 53


 1648 06ab A302 0000 		.long	0x2a3
 1649 06af 0000 0000 		.long	.LLST20
 1650 06b3 35        		.uleb128 0x35
 1651 06b4 AF02 0000 		.long	0x2af
 1652 06b8 36        		.uleb128 0x36
 1653 06b9 0000 0000 		.long	.Ldebug_ranges0+0
 1654 06bd 27        		.uleb128 0x27
 1655 06be B802 0000 		.long	0x2b8
 1656 06c2 0000 0000 		.long	.LLST21
 1657 06c6 37        		.uleb128 0x37
 1658 06c7 0000 0000 		.long	.Ldebug_ranges0+0x28
 1659 06cb D906 0000 		.long	0x6d9
 1660 06cf 27        		.uleb128 0x27
 1661 06d0 C502 0000 		.long	0x2c5
 1662 06d4 0000 0000 		.long	.LLST22
 1663 06d8 00        		.byte	0
 1664 06d9 34        		.uleb128 0x34
 1665 06da C401 0000 		.long	0x1c4
 1666 06de 0000 0000 		.long	.LBB88
 1667 06e2 0000 0000 		.long	.LBE88
 1668 06e6 03        		.byte	0x3
 1669 06e7 A701      		.word	0x1a7
 1670 06e9 31        		.uleb128 0x31
 1671 06ea D601 0000 		.long	0x1d6
 1672 06ee 31        		.uleb128 0x31
 1673 06ef D601 0000 		.long	0x1d6
 1674 06f3 26        		.uleb128 0x26
 1675 06f4 0000 0000 		.long	.LBB89
 1676 06f8 0000 0000 		.long	.LBE89
 1677 06fc 27        		.uleb128 0x27
 1678 06fd E101 0000 		.long	0x1e1
 1679 0701 0000 0000 		.long	.LLST23
 1680 0705 27        		.uleb128 0x27
 1681 0706 ED01 0000 		.long	0x1ed
 1682 070a 0000 0000 		.long	.LLST24
 1683 070e 26        		.uleb128 0x26
 1684 070f 0000 0000 		.long	.LBB90
 1685 0713 0000 0000 		.long	.LBE90
 1686 0717 27        		.uleb128 0x27
 1687 0718 FA01 0000 		.long	0x1fa
 1688 071c 0000 0000 		.long	.LLST25
 1689 0720 26        		.uleb128 0x26
 1690 0721 0000 0000 		.long	.LBB91
 1691 0725 0000 0000 		.long	.LBE91
 1692 0729 27        		.uleb128 0x27
 1693 072a 0702 0000 		.long	0x207
 1694 072e 0000 0000 		.long	.LLST26
 1695 0732 00        		.byte	0
 1696 0733 00        		.byte	0
 1697 0734 00        		.byte	0
 1698 0735 00        		.byte	0
 1699 0736 00        		.byte	0
 1700 0737 00        		.byte	0
 1701 0738 00        		.byte	0
 1702 0739 00        		.byte	0
 1703 073a 00        		.byte	0
 1704 073b 00        		.byte	0
GAS LISTING C:\Users\thouli\AppData\Local\Temp\cc8sA0gt.s 			page 54


 1705 073c 34        		.uleb128 0x34
 1706 073d 7104 0000 		.long	0x471
 1707 0741 0000 0000 		.long	.LBB96
 1708 0745 0000 0000 		.long	.LBE96
 1709 0749 01        		.byte	0x1
 1710 074a 6301      		.word	0x163
 1711 074c 26        		.uleb128 0x26
 1712 074d 0000 0000 		.long	.LBB97
 1713 0751 0000 0000 		.long	.LBE97
 1714 0755 27        		.uleb128 0x27
 1715 0756 7F04 0000 		.long	0x47f
 1716 075a 0000 0000 		.long	.LLST27
 1717 075e 27        		.uleb128 0x27
 1718 075f 8B04 0000 		.long	0x48b
 1719 0763 0000 0000 		.long	.LLST28
 1720 0767 2C        		.uleb128 0x2c
 1721 0768 5303 0000 		.long	0x353
 1722 076c 0000 0000 		.long	.LBB98
 1723 0770 0000 0000 		.long	.LBE98
 1724 0774 03        		.byte	0x3
 1725 0775 3C02      		.word	0x23c
 1726 0777 D907 0000 		.long	0x7d9
 1727 077b 25        		.uleb128 0x25
 1728 077c 6503 0000 		.long	0x365
 1729 0780 0000 0000 		.long	.LLST29
 1730 0784 25        		.uleb128 0x25
 1731 0785 7103 0000 		.long	0x371
 1732 0789 0000 0000 		.long	.LLST30
 1733 078d 26        		.uleb128 0x26
 1734 078e 0000 0000 		.long	.LBB100
 1735 0792 0000 0000 		.long	.LBE100
 1736 0796 27        		.uleb128 0x27
 1737 0797 7E03 0000 		.long	0x37e
 1738 079b 0000 0000 		.long	.LLST31
 1739 079f 27        		.uleb128 0x27
 1740 07a0 8803 0000 		.long	0x388
 1741 07a4 0000 0000 		.long	.LLST32
 1742 07a8 26        		.uleb128 0x26
 1743 07a9 0000 0000 		.long	.LBB101
 1744 07ad 0000 0000 		.long	.LBE101
 1745 07b1 27        		.uleb128 0x27
 1746 07b2 9303 0000 		.long	0x393
 1747 07b6 0000 0000 		.long	.LLST33
 1748 07ba 26        		.uleb128 0x26
 1749 07bb 0000 0000 		.long	.LBB102
 1750 07bf 0000 0000 		.long	.LBE102
 1751 07c3 27        		.uleb128 0x27
 1752 07c4 9E03 0000 		.long	0x39e
 1753 07c8 0000 0000 		.long	.LLST34
 1754 07cc 27        		.uleb128 0x27
 1755 07cd AA03 0000 		.long	0x3aa
 1756 07d1 0000 0000 		.long	.LLST33
 1757 07d5 00        		.byte	0
 1758 07d6 00        		.byte	0
 1759 07d7 00        		.byte	0
 1760 07d8 00        		.byte	0
 1761 07d9 38        		.uleb128 0x38
GAS LISTING C:\Users\thouli\AppData\Local\Temp\cc8sA0gt.s 			page 55


 1762 07da 0000 0000 		.long	.LVL83
 1763 07de 7E0A 0000 		.long	0xa7e
 1764 07e2 39        		.uleb128 0x39
 1765 07e3 06        		.byte	0x6
 1766 07e4 68        		.byte	0x68
 1767 07e5 93        		.byte	0x93
 1768 07e6 01        		.uleb128 0x1
 1769 07e7 69        		.byte	0x69
 1770 07e8 93        		.byte	0x93
 1771 07e9 01        		.uleb128 0x1
 1772 07ea 05        		.byte	0x5
 1773 07eb 03        		.byte	0x3
 1774 07ec 0000 0000 		.long	usbTxBuf+1
 1775 07f0 39        		.uleb128 0x39
 1776 07f1 01        		.byte	0x1
 1777 07f2 66        		.byte	0x66
 1778 07f3 02        		.byte	0x2
 1779 07f4 8C        		.byte	0x8c
 1780 07f5 00        		.sleb128 0
 1781 07f6 00        		.byte	0
 1782 07f7 00        		.byte	0
 1783 07f8 00        		.byte	0
 1784 07f9 00        		.byte	0
 1785 07fa 2D        		.uleb128 0x2d
 1786 07fb 0000 0000 		.long	.LBB103
 1787 07ff 0000 0000 		.long	.LBE103
 1788 0803 2808 0000 		.long	0x828
 1789 0807 2B        		.uleb128 0x2b
 1790 0808 0000 0000 		.long	.LASF50
 1791 080c 01        		.byte	0x1
 1792 080d 6C01      		.word	0x16c
 1793 080f 5400 0000 		.long	0x54
 1794 0813 0000 0000 		.long	.LLST36
 1795 0817 2B        		.uleb128 0x2b
 1796 0818 0000 0000 		.long	.LASF51
 1797 081c 01        		.byte	0x1
 1798 081d 6C01      		.word	0x16c
 1799 081f 3B00 0000 		.long	0x3b
 1800 0823 0000 0000 		.long	.LLST37
 1801 0827 00        		.byte	0
 1802 0828 2D        		.uleb128 0x2d
 1803 0829 0000 0000 		.long	.LBB104
 1804 082d 0000 0000 		.long	.LBE104
 1805 0831 4208 0000 		.long	0x842
 1806 0835 13        		.uleb128 0x13
 1807 0836 6374 7200 		.string	"ctr"
 1808 083a 01        		.byte	0x1
 1809 083b 7701      		.word	0x177
 1810 083d 3B00 0000 		.long	0x3b
 1811 0841 00        		.byte	0
 1812 0842 33        		.uleb128 0x33
 1813 0843 0000 0000 		.long	.LVL19
 1814 0847 8C0A 0000 		.long	0xa8c
 1815 084b 33        		.uleb128 0x33
 1816 084c 0000 0000 		.long	.LVL20
 1817 0850 990A 0000 		.long	0xa99
 1818 0854 00        		.byte	0
GAS LISTING C:\Users\thouli\AppData\Local\Temp\cc8sA0gt.s 			page 56


 1819 0855 2F        		.uleb128 0x2f
 1820 0856 9804 0000 		.long	0x498
 1821 085a 0000 0000 		.long	.LBB105
 1822 085e 0000 0000 		.long	.LBE105
 1823 0862 01        		.byte	0x1
 1824 0863 9001      		.word	0x190
 1825 0865 33        		.uleb128 0x33
 1826 0866 0000 0000 		.long	.LVL14
 1827 086a ED03 0000 		.long	0x3ed
 1828 086e 33        		.uleb128 0x33
 1829 086f 0000 0000 		.long	.LVL90
 1830 0873 ED03 0000 		.long	0x3ed
 1831 0877 00        		.byte	0
 1832 0878 3A        		.uleb128 0x3a
 1833 0879 0000 0000 		.long	.LASF63
 1834 087d 03        		.byte	0x3
 1835 087e 43        		.byte	0x43
 1836 087f 4600 0000 		.long	0x46
 1837 0883 05        		.byte	0x5
 1838 0884 03        		.byte	0x3
 1839 0885 0000 0000 		.long	usbMsgLen
 1840 0889 3B        		.uleb128 0x3b
 1841 088a 0000 0000 		.long	.LASF64
 1842 088e 03        		.byte	0x3
 1843 088f 41        		.byte	0x41
 1844 0890 D402 0000 		.long	0x2d4
 1845 0894 01        		.byte	0x1
 1846 0895 05        		.byte	0x5
 1847 0896 03        		.byte	0x3
 1848 0897 0000 0000 		.long	usbMsgPtr
 1849 089b 3B        		.uleb128 0x3b
 1850 089c 0000 0000 		.long	.LASF65
 1851 08a0 03        		.byte	0x3
 1852 08a1 2C        		.byte	0x2c
 1853 08a2 4600 0000 		.long	0x46
 1854 08a6 01        		.byte	0x1
 1855 08a7 05        		.byte	0x5
 1856 08a8 03        		.byte	0x3
 1857 08a9 0000 0000 		.long	usbRxToken
 1858 08ad 3B        		.uleb128 0x3b
 1859 08ae 0000 0000 		.long	.LASF66
 1860 08b2 03        		.byte	0x3
 1861 08b3 29        		.byte	0x29
 1862 08b4 4600 0000 		.long	0x46
 1863 08b8 01        		.byte	0x1
 1864 08b9 05        		.byte	0x5
 1865 08ba 03        		.byte	0x3
 1866 08bb 0000 0000 		.long	usbConfiguration
 1867 08bf 06        		.uleb128 0x6
 1868 08c0 D608 0000 		.long	0x8d6
 1869 08c4 CF08 0000 		.long	0x8cf
 1870 08c8 07        		.uleb128 0x7
 1871 08c9 A900 0000 		.long	0xa9
 1872 08cd 11        		.byte	0x11
 1873 08ce 00        		.byte	0
 1874 08cf 03        		.uleb128 0x3
 1875 08d0 01        		.byte	0x1
GAS LISTING C:\Users\thouli\AppData\Local\Temp\cc8sA0gt.s 			page 57


 1876 08d1 06        		.byte	0x6
 1877 08d2 0000 0000 		.long	.LASF67
 1878 08d6 3C        		.uleb128 0x3c
 1879 08d7 CF08 0000 		.long	0x8cf
 1880 08db 3B        		.uleb128 0x3b
 1881 08dc 0000 0000 		.long	.LASF68
 1882 08e0 03        		.byte	0x3
 1883 08e1 87        		.byte	0x87
 1884 08e2 ED08 0000 		.long	0x8ed
 1885 08e6 01        		.byte	0x1
 1886 08e7 05        		.byte	0x5
 1887 08e8 03        		.byte	0x3
 1888 08e9 0000 0000 		.long	usbDescriptorDevice
 1889 08ed 3C        		.uleb128 0x3c
 1890 08ee BF08 0000 		.long	0x8bf
 1891 08f2 3B        		.uleb128 0x3b
 1892 08f3 0000 0000 		.long	.LASF69
 1893 08f7 03        		.byte	0x3
 1894 08f8 A6        		.byte	0xa6
 1895 08f9 0409 0000 		.long	0x904
 1896 08fd 01        		.byte	0x1
 1897 08fe 05        		.byte	0x5
 1898 08ff 03        		.byte	0x3
 1899 0900 0000 0000 		.long	usbDescriptorConfiguration
 1900 0904 3C        		.uleb128 0x3c
 1901 0905 BF08 0000 		.long	0x8bf
 1902 0909 06        		.uleb128 0x6
 1903 090a D608 0000 		.long	0x8d6
 1904 090e 1909 0000 		.long	0x919
 1905 0912 07        		.uleb128 0x7
 1906 0913 A900 0000 		.long	0xa9
 1907 0917 03        		.byte	0x3
 1908 0918 00        		.byte	0
 1909 0919 3B        		.uleb128 0x3b
 1910 091a 0000 0000 		.long	.LASF70
 1911 091e 03        		.byte	0x3
 1912 091f 5E        		.byte	0x5e
 1913 0920 2B09 0000 		.long	0x92b
 1914 0924 01        		.byte	0x1
 1915 0925 05        		.byte	0x5
 1916 0926 03        		.byte	0x3
 1917 0927 0000 0000 		.long	usbDescriptorString0
 1918 092b 3C        		.uleb128 0x3c
 1919 092c 0909 0000 		.long	0x909
 1920 0930 06        		.uleb128 0x6
 1921 0931 3B09 0000 		.long	0x93b
 1922 0935 3B09 0000 		.long	0x93b
 1923 0939 3D        		.uleb128 0x3d
 1924 093a 00        		.byte	0
 1925 093b 3C        		.uleb128 0x3c
 1926 093c 4D00 0000 		.long	0x4d
 1927 0940 3E        		.uleb128 0x3e
 1928 0941 0000 0000 		.long	.LASF71
 1929 0945 05        		.byte	0x5
 1930 0946 E901      		.word	0x1e9
 1931 0948 4E09 0000 		.long	0x94e
 1932 094c 01        		.byte	0x1
GAS LISTING C:\Users\thouli\AppData\Local\Temp\cc8sA0gt.s 			page 58


 1933 094d 01        		.byte	0x1
 1934 094e 3C        		.uleb128 0x3c
 1935 094f 3009 0000 		.long	0x930
 1936 0953 3E        		.uleb128 0x3e
 1937 0954 0000 0000 		.long	.LASF72
 1938 0958 05        		.byte	0x5
 1939 0959 EF01      		.word	0x1ef
 1940 095b 6109 0000 		.long	0x961
 1941 095f 01        		.byte	0x1
 1942 0960 01        		.byte	0x1
 1943 0961 3C        		.uleb128 0x3c
 1944 0962 3009 0000 		.long	0x930
 1945 0966 3E        		.uleb128 0x3e
 1946 0967 0000 0000 		.long	.LASF73
 1947 096b 05        		.byte	0x5
 1948 096c F501      		.word	0x1f5
 1949 096e 7409 0000 		.long	0x974
 1950 0972 01        		.byte	0x1
 1951 0973 01        		.byte	0x1
 1952 0974 3C        		.uleb128 0x3c
 1953 0975 3009 0000 		.long	0x930
 1954 0979 06        		.uleb128 0x6
 1955 097a 4600 0000 		.long	0x46
 1956 097e 8909 0000 		.long	0x989
 1957 0982 07        		.uleb128 0x7
 1958 0983 A900 0000 		.long	0xa9
 1959 0987 15        		.byte	0x15
 1960 0988 00        		.byte	0
 1961 0989 3B        		.uleb128 0x3b
 1962 098a 0000 0000 		.long	.LASF74
 1963 098e 03        		.byte	0x3
 1964 098f 25        		.byte	0x25
 1965 0990 7909 0000 		.long	0x979
 1966 0994 01        		.byte	0x1
 1967 0995 05        		.byte	0x5
 1968 0996 03        		.byte	0x3
 1969 0997 0000 0000 		.long	usbRxBuf
 1970 099b 3B        		.uleb128 0x3b
 1971 099c 0000 0000 		.long	.LASF75
 1972 09a0 03        		.byte	0x3
 1973 09a1 26        		.byte	0x26
 1974 09a2 4600 0000 		.long	0x46
 1975 09a6 01        		.byte	0x1
 1976 09a7 05        		.byte	0x5
 1977 09a8 03        		.byte	0x3
 1978 09a9 0000 0000 		.long	usbInputBufOffset
 1979 09ad 3B        		.uleb128 0x3b
 1980 09ae 0000 0000 		.long	.LASF76
 1981 09b2 03        		.byte	0x3
 1982 09b3 27        		.byte	0x27
 1983 09b4 4600 0000 		.long	0x46
 1984 09b8 01        		.byte	0x1
 1985 09b9 05        		.byte	0x5
 1986 09ba 03        		.byte	0x3
 1987 09bb 0000 0000 		.long	usbDeviceAddr
 1988 09bf 3B        		.uleb128 0x3b
 1989 09c0 0000 0000 		.long	.LASF77
GAS LISTING C:\Users\thouli\AppData\Local\Temp\cc8sA0gt.s 			page 59


 1990 09c4 03        		.byte	0x3
 1991 09c5 28        		.byte	0x28
 1992 09c6 4600 0000 		.long	0x46
 1993 09ca 01        		.byte	0x1
 1994 09cb 05        		.byte	0x5
 1995 09cc 03        		.byte	0x3
 1996 09cd 0000 0000 		.long	usbNewDeviceAddr
 1997 09d1 3B        		.uleb128 0x3b
 1998 09d2 0000 0000 		.long	.LASF78
 1999 09d6 03        		.byte	0x3
 2000 09d7 2A        		.byte	0x2a
 2001 09d8 E309 0000 		.long	0x9e3
 2002 09dc 01        		.byte	0x1
 2003 09dd 05        		.byte	0x5
 2004 09de 03        		.byte	0x3
 2005 09df 0000 0000 		.long	usbRxLen
 2006 09e3 05        		.uleb128 0x5
 2007 09e4 3400 0000 		.long	0x34
 2008 09e8 3B        		.uleb128 0x3b
 2009 09e9 0000 0000 		.long	.LASF79
 2010 09ed 03        		.byte	0x3
 2011 09ee 2B        		.byte	0x2b
 2012 09ef 4600 0000 		.long	0x46
 2013 09f3 01        		.byte	0x1
 2014 09f4 05        		.byte	0x5
 2015 09f5 03        		.byte	0x3
 2016 09f6 0000 0000 		.long	usbCurrentTok
 2017 09fa 3B        		.uleb128 0x3b
 2018 09fb 0000 0000 		.long	.LASF80
 2019 09ff 03        		.byte	0x3
 2020 0a00 2E        		.byte	0x2e
 2021 0a01 9400 0000 		.long	0x94
 2022 0a05 01        		.byte	0x1
 2023 0a06 05        		.byte	0x5
 2024 0a07 03        		.byte	0x3
 2025 0a08 0000 0000 		.long	usbTxLen
 2026 0a0c 3B        		.uleb128 0x3b
 2027 0a0d 0000 0000 		.long	.LASF81
 2028 0a11 03        		.byte	0x3
 2029 0a12 32        		.byte	0x32
 2030 0a13 9900 0000 		.long	0x99
 2031 0a17 01        		.byte	0x1
 2032 0a18 05        		.byte	0x5
 2033 0a19 03        		.byte	0x3
 2034 0a1a 0000 0000 		.long	usbTxBuf
 2035 0a1e 06        		.uleb128 0x6
 2036 0a1f 2E0A 0000 		.long	0xa2e
 2037 0a23 2E0A 0000 		.long	0xa2e
 2038 0a27 07        		.uleb128 0x7
 2039 0a28 A900 0000 		.long	0xa9
 2040 0a2c 05        		.byte	0x5
 2041 0a2d 00        		.byte	0
 2042 0a2e 3C        		.uleb128 0x3c
 2043 0a2f 3B00 0000 		.long	0x3b
 2044 0a33 3B        		.uleb128 0x3b
 2045 0a34 0000 0000 		.long	.LASF82
 2046 0a38 01        		.byte	0x1
GAS LISTING C:\Users\thouli\AppData\Local\Temp\cc8sA0gt.s 			page 60


 2047 0a39 38        		.byte	0x38
 2048 0a3a 450A 0000 		.long	0xa45
 2049 0a3e 01        		.byte	0x1
 2050 0a3f 05        		.byte	0x5
 2051 0a40 03        		.byte	0x3
 2052 0a41 0000 0000 		.long	configurationReply
 2053 0a45 3C        		.uleb128 0x3c
 2054 0a46 1E0A 0000 		.long	0xa1e
 2055 0a4a 3B        		.uleb128 0x3b
 2056 0a4b 0000 0000 		.long	.LASF83
 2057 0a4f 01        		.byte	0x1
 2058 0a50 4A        		.byte	0x4a
 2059 0a51 8201 0000 		.long	0x182
 2060 0a55 01        		.byte	0x1
 2061 0a56 06        		.byte	0x6
 2062 0a57 54        		.byte	0x54
 2063 0a58 93        		.byte	0x93
 2064 0a59 01        		.uleb128 0x1
 2065 0a5a 55        		.byte	0x55
 2066 0a5b 93        		.byte	0x93
 2067 0a5c 01        		.uleb128 0x1
 2068 0a5d 3B        		.uleb128 0x3b
 2069 0a5e 0000 0000 		.long	.LASF84
 2070 0a62 01        		.byte	0x1
 2071 0a63 4B        		.byte	0x4b
 2072 0a64 8201 0000 		.long	0x182
 2073 0a68 01        		.byte	0x1
 2074 0a69 06        		.byte	0x6
 2075 0a6a 56        		.byte	0x56
 2076 0a6b 93        		.byte	0x93
 2077 0a6c 01        		.uleb128 0x1
 2078 0a6d 57        		.byte	0x57
 2079 0a6e 93        		.byte	0x93
 2080 0a6f 01        		.uleb128 0x1
 2081 0a70 3B        		.uleb128 0x3b
 2082 0a71 0000 0000 		.long	.LASF85
 2083 0a75 01        		.byte	0x1
 2084 0a76 57        		.byte	0x57
 2085 0a77 3B00 0000 		.long	0x3b
 2086 0a7b 01        		.byte	0x1
 2087 0a7c 01        		.byte	0x1
 2088 0a7d 53        		.byte	0x53
 2089 0a7e 3F        		.uleb128 0x3f
 2090 0a7f 01        		.byte	0x1
 2091 0a80 01        		.byte	0x1
 2092 0a81 0000 0000 		.long	.LASF86
 2093 0a85 0000 0000 		.long	.LASF86
 2094 0a89 05        		.byte	0x5
 2095 0a8a 4701      		.word	0x147
 2096 0a8c 40        		.uleb128 0x40
 2097 0a8d 01        		.byte	0x1
 2098 0a8e 01        		.byte	0x1
 2099 0a8f 0000 0000 		.long	.LASF87
 2100 0a93 0000 0000 		.long	.LASF87
 2101 0a97 06        		.byte	0x6
 2102 0a98 AB        		.byte	0xab
 2103 0a99 3F        		.uleb128 0x3f
GAS LISTING C:\Users\thouli\AppData\Local\Temp\cc8sA0gt.s 			page 61


 2104 0a9a 01        		.byte	0x1
 2105 0a9b 01        		.byte	0x1
 2106 0a9c 0000 0000 		.long	.LASF88
 2107 0aa0 0000 0000 		.long	.LASF88
 2108 0aa4 01        		.byte	0x1
 2109 0aa5 0601      		.word	0x106
 2110 0aa7 00        		.byte	0
 2111               		.section	.debug_abbrev,"",@progbits
 2112               	.Ldebug_abbrev0:
 2113 0000 01        		.uleb128 0x1
 2114 0001 11        		.uleb128 0x11
 2115 0002 01        		.byte	0x1
 2116 0003 25        		.uleb128 0x25
 2117 0004 0E        		.uleb128 0xe
 2118 0005 13        		.uleb128 0x13
 2119 0006 0B        		.uleb128 0xb
 2120 0007 03        		.uleb128 0x3
 2121 0008 0E        		.uleb128 0xe
 2122 0009 1B        		.uleb128 0x1b
 2123 000a 0E        		.uleb128 0xe
 2124 000b 55        		.uleb128 0x55
 2125 000c 06        		.uleb128 0x6
 2126 000d 11        		.uleb128 0x11
 2127 000e 01        		.uleb128 0x1
 2128 000f 52        		.uleb128 0x52
 2129 0010 01        		.uleb128 0x1
 2130 0011 10        		.uleb128 0x10
 2131 0012 06        		.uleb128 0x6
 2132 0013 00        		.byte	0
 2133 0014 00        		.byte	0
 2134 0015 02        		.uleb128 0x2
 2135 0016 16        		.uleb128 0x16
 2136 0017 00        		.byte	0
 2137 0018 03        		.uleb128 0x3
 2138 0019 0E        		.uleb128 0xe
 2139 001a 3A        		.uleb128 0x3a
 2140 001b 0B        		.uleb128 0xb
 2141 001c 3B        		.uleb128 0x3b
 2142 001d 0B        		.uleb128 0xb
 2143 001e 49        		.uleb128 0x49
 2144 001f 13        		.uleb128 0x13
 2145 0020 00        		.byte	0
 2146 0021 00        		.byte	0
 2147 0022 03        		.uleb128 0x3
 2148 0023 24        		.uleb128 0x24
 2149 0024 00        		.byte	0
 2150 0025 0B        		.uleb128 0xb
 2151 0026 0B        		.uleb128 0xb
 2152 0027 3E        		.uleb128 0x3e
 2153 0028 0B        		.uleb128 0xb
 2154 0029 03        		.uleb128 0x3
 2155 002a 0E        		.uleb128 0xe
 2156 002b 00        		.byte	0
 2157 002c 00        		.byte	0
 2158 002d 04        		.uleb128 0x4
 2159 002e 24        		.uleb128 0x24
 2160 002f 00        		.byte	0
GAS LISTING C:\Users\thouli\AppData\Local\Temp\cc8sA0gt.s 			page 62


 2161 0030 0B        		.uleb128 0xb
 2162 0031 0B        		.uleb128 0xb
 2163 0032 3E        		.uleb128 0x3e
 2164 0033 0B        		.uleb128 0xb
 2165 0034 03        		.uleb128 0x3
 2166 0035 08        		.uleb128 0x8
 2167 0036 00        		.byte	0
 2168 0037 00        		.byte	0
 2169 0038 05        		.uleb128 0x5
 2170 0039 35        		.uleb128 0x35
 2171 003a 00        		.byte	0
 2172 003b 49        		.uleb128 0x49
 2173 003c 13        		.uleb128 0x13
 2174 003d 00        		.byte	0
 2175 003e 00        		.byte	0
 2176 003f 06        		.uleb128 0x6
 2177 0040 01        		.uleb128 0x1
 2178 0041 01        		.byte	0x1
 2179 0042 49        		.uleb128 0x49
 2180 0043 13        		.uleb128 0x13
 2181 0044 01        		.uleb128 0x1
 2182 0045 13        		.uleb128 0x13
 2183 0046 00        		.byte	0
 2184 0047 00        		.byte	0
 2185 0048 07        		.uleb128 0x7
 2186 0049 21        		.uleb128 0x21
 2187 004a 00        		.byte	0
 2188 004b 49        		.uleb128 0x49
 2189 004c 13        		.uleb128 0x13
 2190 004d 2F        		.uleb128 0x2f
 2191 004e 0B        		.uleb128 0xb
 2192 004f 00        		.byte	0
 2193 0050 00        		.byte	0
 2194 0051 08        		.uleb128 0x8
 2195 0052 17        		.uleb128 0x17
 2196 0053 01        		.byte	0x1
 2197 0054 03        		.uleb128 0x3
 2198 0055 0E        		.uleb128 0xe
 2199 0056 0B        		.uleb128 0xb
 2200 0057 0B        		.uleb128 0xb
 2201 0058 3A        		.uleb128 0x3a
 2202 0059 0B        		.uleb128 0xb
 2203 005a 3B        		.uleb128 0x3b
 2204 005b 05        		.uleb128 0x5
 2205 005c 01        		.uleb128 0x1
 2206 005d 13        		.uleb128 0x13
 2207 005e 00        		.byte	0
 2208 005f 00        		.byte	0
 2209 0060 09        		.uleb128 0x9
 2210 0061 0D        		.uleb128 0xd
 2211 0062 00        		.byte	0
 2212 0063 03        		.uleb128 0x3
 2213 0064 0E        		.uleb128 0xe
 2214 0065 3A        		.uleb128 0x3a
 2215 0066 0B        		.uleb128 0xb
 2216 0067 3B        		.uleb128 0x3b
 2217 0068 05        		.uleb128 0x5
GAS LISTING C:\Users\thouli\AppData\Local\Temp\cc8sA0gt.s 			page 63


 2218 0069 49        		.uleb128 0x49
 2219 006a 13        		.uleb128 0x13
 2220 006b 00        		.byte	0
 2221 006c 00        		.byte	0
 2222 006d 0A        		.uleb128 0xa
 2223 006e 16        		.uleb128 0x16
 2224 006f 00        		.byte	0
 2225 0070 03        		.uleb128 0x3
 2226 0071 0E        		.uleb128 0xe
 2227 0072 3A        		.uleb128 0x3a
 2228 0073 0B        		.uleb128 0xb
 2229 0074 3B        		.uleb128 0x3b
 2230 0075 05        		.uleb128 0x5
 2231 0076 49        		.uleb128 0x49
 2232 0077 13        		.uleb128 0x13
 2233 0078 00        		.byte	0
 2234 0079 00        		.byte	0
 2235 007a 0B        		.uleb128 0xb
 2236 007b 13        		.uleb128 0x13
 2237 007c 01        		.byte	0x1
 2238 007d 03        		.uleb128 0x3
 2239 007e 0E        		.uleb128 0xe
 2240 007f 0B        		.uleb128 0xb
 2241 0080 0B        		.uleb128 0xb
 2242 0081 3A        		.uleb128 0x3a
 2243 0082 0B        		.uleb128 0xb
 2244 0083 3B        		.uleb128 0x3b
 2245 0084 05        		.uleb128 0x5
 2246 0085 01        		.uleb128 0x1
 2247 0086 13        		.uleb128 0x13
 2248 0087 00        		.byte	0
 2249 0088 00        		.byte	0
 2250 0089 0C        		.uleb128 0xc
 2251 008a 0D        		.uleb128 0xd
 2252 008b 00        		.byte	0
 2253 008c 03        		.uleb128 0x3
 2254 008d 0E        		.uleb128 0xe
 2255 008e 3A        		.uleb128 0x3a
 2256 008f 0B        		.uleb128 0xb
 2257 0090 3B        		.uleb128 0x3b
 2258 0091 05        		.uleb128 0x5
 2259 0092 49        		.uleb128 0x49
 2260 0093 13        		.uleb128 0x13
 2261 0094 38        		.uleb128 0x38
 2262 0095 0A        		.uleb128 0xa
 2263 0096 00        		.byte	0
 2264 0097 00        		.byte	0
 2265 0098 0D        		.uleb128 0xd
 2266 0099 17        		.uleb128 0x17
 2267 009a 01        		.byte	0x1
 2268 009b 0B        		.uleb128 0xb
 2269 009c 0B        		.uleb128 0xb
 2270 009d 3A        		.uleb128 0x3a
 2271 009e 0B        		.uleb128 0xb
 2272 009f 3B        		.uleb128 0x3b
 2273 00a0 0B        		.uleb128 0xb
 2274 00a1 01        		.uleb128 0x1
GAS LISTING C:\Users\thouli\AppData\Local\Temp\cc8sA0gt.s 			page 64


 2275 00a2 13        		.uleb128 0x13
 2276 00a3 00        		.byte	0
 2277 00a4 00        		.byte	0
 2278 00a5 0E        		.uleb128 0xe
 2279 00a6 0D        		.uleb128 0xd
 2280 00a7 00        		.byte	0
 2281 00a8 03        		.uleb128 0x3
 2282 00a9 08        		.uleb128 0x8
 2283 00aa 3A        		.uleb128 0x3a
 2284 00ab 0B        		.uleb128 0xb
 2285 00ac 3B        		.uleb128 0x3b
 2286 00ad 0B        		.uleb128 0xb
 2287 00ae 49        		.uleb128 0x49
 2288 00af 13        		.uleb128 0x13
 2289 00b0 00        		.byte	0
 2290 00b1 00        		.byte	0
 2291 00b2 0F        		.uleb128 0xf
 2292 00b3 04        		.uleb128 0x4
 2293 00b4 01        		.byte	0x1
 2294 00b5 0B        		.uleb128 0xb
 2295 00b6 0B        		.uleb128 0xb
 2296 00b7 49        		.uleb128 0x49
 2297 00b8 13        		.uleb128 0x13
 2298 00b9 3A        		.uleb128 0x3a
 2299 00ba 0B        		.uleb128 0xb
 2300 00bb 3B        		.uleb128 0x3b
 2301 00bc 0B        		.uleb128 0xb
 2302 00bd 01        		.uleb128 0x1
 2303 00be 13        		.uleb128 0x13
 2304 00bf 00        		.byte	0
 2305 00c0 00        		.byte	0
 2306 00c1 10        		.uleb128 0x10
 2307 00c2 28        		.uleb128 0x28
 2308 00c3 00        		.byte	0
 2309 00c4 03        		.uleb128 0x3
 2310 00c5 0E        		.uleb128 0xe
 2311 00c6 1C        		.uleb128 0x1c
 2312 00c7 0B        		.uleb128 0xb
 2313 00c8 00        		.byte	0
 2314 00c9 00        		.byte	0
 2315 00ca 11        		.uleb128 0x11
 2316 00cb 2E        		.uleb128 0x2e
 2317 00cc 01        		.byte	0x1
 2318 00cd 03        		.uleb128 0x3
 2319 00ce 0E        		.uleb128 0xe
 2320 00cf 3A        		.uleb128 0x3a
 2321 00d0 0B        		.uleb128 0xb
 2322 00d1 3B        		.uleb128 0x3b
 2323 00d2 05        		.uleb128 0x5
 2324 00d3 27        		.uleb128 0x27
 2325 00d4 0C        		.uleb128 0xc
 2326 00d5 49        		.uleb128 0x49
 2327 00d6 13        		.uleb128 0x13
 2328 00d7 20        		.uleb128 0x20
 2329 00d8 0B        		.uleb128 0xb
 2330 00d9 01        		.uleb128 0x1
 2331 00da 13        		.uleb128 0x13
GAS LISTING C:\Users\thouli\AppData\Local\Temp\cc8sA0gt.s 			page 65


 2332 00db 00        		.byte	0
 2333 00dc 00        		.byte	0
 2334 00dd 12        		.uleb128 0x12
 2335 00de 05        		.uleb128 0x5
 2336 00df 00        		.byte	0
 2337 00e0 03        		.uleb128 0x3
 2338 00e1 08        		.uleb128 0x8
 2339 00e2 3A        		.uleb128 0x3a
 2340 00e3 0B        		.uleb128 0xb
 2341 00e4 3B        		.uleb128 0x3b
 2342 00e5 05        		.uleb128 0x5
 2343 00e6 49        		.uleb128 0x49
 2344 00e7 13        		.uleb128 0x13
 2345 00e8 00        		.byte	0
 2346 00e9 00        		.byte	0
 2347 00ea 13        		.uleb128 0x13
 2348 00eb 34        		.uleb128 0x34
 2349 00ec 00        		.byte	0
 2350 00ed 03        		.uleb128 0x3
 2351 00ee 08        		.uleb128 0x8
 2352 00ef 3A        		.uleb128 0x3a
 2353 00f0 0B        		.uleb128 0xb
 2354 00f1 3B        		.uleb128 0x3b
 2355 00f2 05        		.uleb128 0x5
 2356 00f3 49        		.uleb128 0x49
 2357 00f4 13        		.uleb128 0x13
 2358 00f5 00        		.byte	0
 2359 00f6 00        		.byte	0
 2360 00f7 14        		.uleb128 0x14
 2361 00f8 34        		.uleb128 0x34
 2362 00f9 00        		.byte	0
 2363 00fa 03        		.uleb128 0x3
 2364 00fb 0E        		.uleb128 0xe
 2365 00fc 3A        		.uleb128 0x3a
 2366 00fd 0B        		.uleb128 0xb
 2367 00fe 3B        		.uleb128 0x3b
 2368 00ff 05        		.uleb128 0x5
 2369 0100 49        		.uleb128 0x49
 2370 0101 13        		.uleb128 0x13
 2371 0102 00        		.byte	0
 2372 0103 00        		.byte	0
 2373 0104 15        		.uleb128 0x15
 2374 0105 0B        		.uleb128 0xb
 2375 0106 01        		.byte	0x1
 2376 0107 00        		.byte	0
 2377 0108 00        		.byte	0
 2378 0109 16        		.uleb128 0x16
 2379 010a 0F        		.uleb128 0xf
 2380 010b 00        		.byte	0
 2381 010c 0B        		.uleb128 0xb
 2382 010d 0B        		.uleb128 0xb
 2383 010e 49        		.uleb128 0x49
 2384 010f 13        		.uleb128 0x13
 2385 0110 00        		.byte	0
 2386 0111 00        		.byte	0
 2387 0112 17        		.uleb128 0x17
 2388 0113 2E        		.uleb128 0x2e
GAS LISTING C:\Users\thouli\AppData\Local\Temp\cc8sA0gt.s 			page 66


 2389 0114 00        		.byte	0
 2390 0115 03        		.uleb128 0x3
 2391 0116 0E        		.uleb128 0xe
 2392 0117 3A        		.uleb128 0x3a
 2393 0118 0B        		.uleb128 0xb
 2394 0119 3B        		.uleb128 0x3b
 2395 011a 0B        		.uleb128 0xb
 2396 011b 27        		.uleb128 0x27
 2397 011c 0C        		.uleb128 0xc
 2398 011d 20        		.uleb128 0x20
 2399 011e 0B        		.uleb128 0xb
 2400 011f 00        		.byte	0
 2401 0120 00        		.byte	0
 2402 0121 18        		.uleb128 0x18
 2403 0122 2E        		.uleb128 0x2e
 2404 0123 01        		.byte	0x1
 2405 0124 03        		.uleb128 0x3
 2406 0125 0E        		.uleb128 0xe
 2407 0126 3A        		.uleb128 0x3a
 2408 0127 0B        		.uleb128 0xb
 2409 0128 3B        		.uleb128 0x3b
 2410 0129 0B        		.uleb128 0xb
 2411 012a 27        		.uleb128 0x27
 2412 012b 0C        		.uleb128 0xc
 2413 012c 20        		.uleb128 0x20
 2414 012d 0B        		.uleb128 0xb
 2415 012e 01        		.uleb128 0x1
 2416 012f 13        		.uleb128 0x13
 2417 0130 00        		.byte	0
 2418 0131 00        		.byte	0
 2419 0132 19        		.uleb128 0x19
 2420 0133 05        		.uleb128 0x5
 2421 0134 00        		.byte	0
 2422 0135 03        		.uleb128 0x3
 2423 0136 0E        		.uleb128 0xe
 2424 0137 3A        		.uleb128 0x3a
 2425 0138 0B        		.uleb128 0xb
 2426 0139 3B        		.uleb128 0x3b
 2427 013a 0B        		.uleb128 0xb
 2428 013b 49        		.uleb128 0x49
 2429 013c 13        		.uleb128 0x13
 2430 013d 00        		.byte	0
 2431 013e 00        		.byte	0
 2432 013f 1A        		.uleb128 0x1a
 2433 0140 34        		.uleb128 0x34
 2434 0141 00        		.byte	0
 2435 0142 03        		.uleb128 0x3
 2436 0143 0E        		.uleb128 0xe
 2437 0144 3A        		.uleb128 0x3a
 2438 0145 0B        		.uleb128 0xb
 2439 0146 3B        		.uleb128 0x3b
 2440 0147 0B        		.uleb128 0xb
 2441 0148 49        		.uleb128 0x49
 2442 0149 13        		.uleb128 0x13
 2443 014a 00        		.byte	0
 2444 014b 00        		.byte	0
 2445 014c 1B        		.uleb128 0x1b
GAS LISTING C:\Users\thouli\AppData\Local\Temp\cc8sA0gt.s 			page 67


 2446 014d 2E        		.uleb128 0x2e
 2447 014e 00        		.byte	0
 2448 014f 3F        		.uleb128 0x3f
 2449 0150 0C        		.uleb128 0xc
 2450 0151 03        		.uleb128 0x3
 2451 0152 0E        		.uleb128 0xe
 2452 0153 3A        		.uleb128 0x3a
 2453 0154 0B        		.uleb128 0xb
 2454 0155 3B        		.uleb128 0x3b
 2455 0156 0B        		.uleb128 0xb
 2456 0157 27        		.uleb128 0x27
 2457 0158 0C        		.uleb128 0xc
 2458 0159 20        		.uleb128 0x20
 2459 015a 0B        		.uleb128 0xb
 2460 015b 00        		.byte	0
 2461 015c 00        		.byte	0
 2462 015d 1C        		.uleb128 0x1c
 2463 015e 0A        		.uleb128 0xa
 2464 015f 00        		.byte	0
 2465 0160 03        		.uleb128 0x3
 2466 0161 0E        		.uleb128 0xe
 2467 0162 3A        		.uleb128 0x3a
 2468 0163 0B        		.uleb128 0xb
 2469 0164 3B        		.uleb128 0x3b
 2470 0165 05        		.uleb128 0x5
 2471 0166 00        		.byte	0
 2472 0167 00        		.byte	0
 2473 0168 1D        		.uleb128 0x1d
 2474 0169 2E        		.uleb128 0x2e
 2475 016a 01        		.byte	0x1
 2476 016b 03        		.uleb128 0x3
 2477 016c 0E        		.uleb128 0xe
 2478 016d 3A        		.uleb128 0x3a
 2479 016e 0B        		.uleb128 0xb
 2480 016f 3B        		.uleb128 0x3b
 2481 0170 0B        		.uleb128 0xb
 2482 0171 27        		.uleb128 0x27
 2483 0172 0C        		.uleb128 0xc
 2484 0173 49        		.uleb128 0x49
 2485 0174 13        		.uleb128 0x13
 2486 0175 20        		.uleb128 0x20
 2487 0176 0B        		.uleb128 0xb
 2488 0177 01        		.uleb128 0x1
 2489 0178 13        		.uleb128 0x13
 2490 0179 00        		.byte	0
 2491 017a 00        		.byte	0
 2492 017b 1E        		.uleb128 0x1e
 2493 017c 34        		.uleb128 0x34
 2494 017d 00        		.byte	0
 2495 017e 03        		.uleb128 0x3
 2496 017f 08        		.uleb128 0x8
 2497 0180 3A        		.uleb128 0x3a
 2498 0181 0B        		.uleb128 0xb
 2499 0182 3B        		.uleb128 0x3b
 2500 0183 0B        		.uleb128 0xb
 2501 0184 49        		.uleb128 0x49
 2502 0185 13        		.uleb128 0x13
GAS LISTING C:\Users\thouli\AppData\Local\Temp\cc8sA0gt.s 			page 68


 2503 0186 00        		.byte	0
 2504 0187 00        		.byte	0
 2505 0188 1F        		.uleb128 0x1f
 2506 0189 2E        		.uleb128 0x2e
 2507 018a 01        		.byte	0x1
 2508 018b 03        		.uleb128 0x3
 2509 018c 0E        		.uleb128 0xe
 2510 018d 3A        		.uleb128 0x3a
 2511 018e 0B        		.uleb128 0xb
 2512 018f 3B        		.uleb128 0x3b
 2513 0190 05        		.uleb128 0x5
 2514 0191 27        		.uleb128 0x27
 2515 0192 0C        		.uleb128 0xc
 2516 0193 20        		.uleb128 0x20
 2517 0194 0B        		.uleb128 0xb
 2518 0195 01        		.uleb128 0x1
 2519 0196 13        		.uleb128 0x13
 2520 0197 00        		.byte	0
 2521 0198 00        		.byte	0
 2522 0199 20        		.uleb128 0x20
 2523 019a 05        		.uleb128 0x5
 2524 019b 00        		.byte	0
 2525 019c 03        		.uleb128 0x3
 2526 019d 0E        		.uleb128 0xe
 2527 019e 3A        		.uleb128 0x3a
 2528 019f 0B        		.uleb128 0xb
 2529 01a0 3B        		.uleb128 0x3b
 2530 01a1 05        		.uleb128 0x5
 2531 01a2 49        		.uleb128 0x49
 2532 01a3 13        		.uleb128 0x13
 2533 01a4 00        		.byte	0
 2534 01a5 00        		.byte	0
 2535 01a6 21        		.uleb128 0x21
 2536 01a7 2E        		.uleb128 0x2e
 2537 01a8 01        		.byte	0x1
 2538 01a9 03        		.uleb128 0x3
 2539 01aa 0E        		.uleb128 0xe
 2540 01ab 3A        		.uleb128 0x3a
 2541 01ac 0B        		.uleb128 0xb
 2542 01ad 3B        		.uleb128 0x3b
 2543 01ae 0B        		.uleb128 0xb
 2544 01af 27        		.uleb128 0x27
 2545 01b0 0C        		.uleb128 0xc
 2546 01b1 11        		.uleb128 0x11
 2547 01b2 01        		.uleb128 0x1
 2548 01b3 12        		.uleb128 0x12
 2549 01b4 01        		.uleb128 0x1
 2550 01b5 40        		.uleb128 0x40
 2551 01b6 0A        		.uleb128 0xa
 2552 01b7 9742      		.uleb128 0x2117
 2553 01b9 0C        		.uleb128 0xc
 2554 01ba 01        		.uleb128 0x1
 2555 01bb 13        		.uleb128 0x13
 2556 01bc 00        		.byte	0
 2557 01bd 00        		.byte	0
 2558 01be 22        		.uleb128 0x22
 2559 01bf 05        		.uleb128 0x5
GAS LISTING C:\Users\thouli\AppData\Local\Temp\cc8sA0gt.s 			page 69


 2560 01c0 00        		.byte	0
 2561 01c1 03        		.uleb128 0x3
 2562 01c2 0E        		.uleb128 0xe
 2563 01c3 3A        		.uleb128 0x3a
 2564 01c4 0B        		.uleb128 0xb
 2565 01c5 3B        		.uleb128 0x3b
 2566 01c6 0B        		.uleb128 0xb
 2567 01c7 49        		.uleb128 0x49
 2568 01c8 13        		.uleb128 0x13
 2569 01c9 02        		.uleb128 0x2
 2570 01ca 06        		.uleb128 0x6
 2571 01cb 00        		.byte	0
 2572 01cc 00        		.byte	0
 2573 01cd 23        		.uleb128 0x23
 2574 01ce 2E        		.uleb128 0x2e
 2575 01cf 00        		.byte	0
 2576 01d0 03        		.uleb128 0x3
 2577 01d1 0E        		.uleb128 0xe
 2578 01d2 3A        		.uleb128 0x3a
 2579 01d3 0B        		.uleb128 0xb
 2580 01d4 3B        		.uleb128 0x3b
 2581 01d5 05        		.uleb128 0x5
 2582 01d6 27        		.uleb128 0x27
 2583 01d7 0C        		.uleb128 0xc
 2584 01d8 20        		.uleb128 0x20
 2585 01d9 0B        		.uleb128 0xb
 2586 01da 00        		.byte	0
 2587 01db 00        		.byte	0
 2588 01dc 24        		.uleb128 0x24
 2589 01dd 1D        		.uleb128 0x1d
 2590 01de 01        		.byte	0x1
 2591 01df 31        		.uleb128 0x31
 2592 01e0 13        		.uleb128 0x13
 2593 01e1 11        		.uleb128 0x11
 2594 01e2 01        		.uleb128 0x1
 2595 01e3 12        		.uleb128 0x12
 2596 01e4 01        		.uleb128 0x1
 2597 01e5 58        		.uleb128 0x58
 2598 01e6 0B        		.uleb128 0xb
 2599 01e7 59        		.uleb128 0x59
 2600 01e8 0B        		.uleb128 0xb
 2601 01e9 01        		.uleb128 0x1
 2602 01ea 13        		.uleb128 0x13
 2603 01eb 00        		.byte	0
 2604 01ec 00        		.byte	0
 2605 01ed 25        		.uleb128 0x25
 2606 01ee 05        		.uleb128 0x5
 2607 01ef 00        		.byte	0
 2608 01f0 31        		.uleb128 0x31
 2609 01f1 13        		.uleb128 0x13
 2610 01f2 02        		.uleb128 0x2
 2611 01f3 06        		.uleb128 0x6
 2612 01f4 00        		.byte	0
 2613 01f5 00        		.byte	0
 2614 01f6 26        		.uleb128 0x26
 2615 01f7 0B        		.uleb128 0xb
 2616 01f8 01        		.byte	0x1
GAS LISTING C:\Users\thouli\AppData\Local\Temp\cc8sA0gt.s 			page 70


 2617 01f9 11        		.uleb128 0x11
 2618 01fa 01        		.uleb128 0x1
 2619 01fb 12        		.uleb128 0x12
 2620 01fc 01        		.uleb128 0x1
 2621 01fd 00        		.byte	0
 2622 01fe 00        		.byte	0
 2623 01ff 27        		.uleb128 0x27
 2624 0200 34        		.uleb128 0x34
 2625 0201 00        		.byte	0
 2626 0202 31        		.uleb128 0x31
 2627 0203 13        		.uleb128 0x13
 2628 0204 02        		.uleb128 0x2
 2629 0205 06        		.uleb128 0x6
 2630 0206 00        		.byte	0
 2631 0207 00        		.byte	0
 2632 0208 28        		.uleb128 0x28
 2633 0209 1D        		.uleb128 0x1d
 2634 020a 00        		.byte	0
 2635 020b 31        		.uleb128 0x31
 2636 020c 13        		.uleb128 0x13
 2637 020d 11        		.uleb128 0x11
 2638 020e 01        		.uleb128 0x1
 2639 020f 12        		.uleb128 0x12
 2640 0210 01        		.uleb128 0x1
 2641 0211 58        		.uleb128 0x58
 2642 0212 0B        		.uleb128 0xb
 2643 0213 59        		.uleb128 0x59
 2644 0214 0B        		.uleb128 0xb
 2645 0215 00        		.byte	0
 2646 0216 00        		.byte	0
 2647 0217 29        		.uleb128 0x29
 2648 0218 2E        		.uleb128 0x2e
 2649 0219 00        		.byte	0
 2650 021a 03        		.uleb128 0x3
 2651 021b 0E        		.uleb128 0xe
 2652 021c 3A        		.uleb128 0x3a
 2653 021d 0B        		.uleb128 0xb
 2654 021e 3B        		.uleb128 0x3b
 2655 021f 0B        		.uleb128 0xb
 2656 0220 27        		.uleb128 0x27
 2657 0221 0C        		.uleb128 0xc
 2658 0222 8701      		.uleb128 0x87
 2659 0224 0C        		.uleb128 0xc
 2660 0225 20        		.uleb128 0x20
 2661 0226 0B        		.uleb128 0xb
 2662 0227 00        		.byte	0
 2663 0228 00        		.byte	0
 2664 0229 2A        		.uleb128 0x2a
 2665 022a 2E        		.uleb128 0x2e
 2666 022b 01        		.byte	0x1
 2667 022c 3F        		.uleb128 0x3f
 2668 022d 0C        		.uleb128 0xc
 2669 022e 03        		.uleb128 0x3
 2670 022f 0E        		.uleb128 0xe
 2671 0230 3A        		.uleb128 0x3a
 2672 0231 0B        		.uleb128 0xb
 2673 0232 3B        		.uleb128 0x3b
GAS LISTING C:\Users\thouli\AppData\Local\Temp\cc8sA0gt.s 			page 71


 2674 0233 05        		.uleb128 0x5
 2675 0234 27        		.uleb128 0x27
 2676 0235 0C        		.uleb128 0xc
 2677 0236 49        		.uleb128 0x49
 2678 0237 13        		.uleb128 0x13
 2679 0238 8701      		.uleb128 0x87
 2680 023a 0C        		.uleb128 0xc
 2681 023b 11        		.uleb128 0x11
 2682 023c 01        		.uleb128 0x1
 2683 023d 12        		.uleb128 0x12
 2684 023e 01        		.uleb128 0x1
 2685 023f 40        		.uleb128 0x40
 2686 0240 0A        		.uleb128 0xa
 2687 0241 9742      		.uleb128 0x2117
 2688 0243 0C        		.uleb128 0xc
 2689 0244 01        		.uleb128 0x1
 2690 0245 13        		.uleb128 0x13
 2691 0246 00        		.byte	0
 2692 0247 00        		.byte	0
 2693 0248 2B        		.uleb128 0x2b
 2694 0249 34        		.uleb128 0x34
 2695 024a 00        		.byte	0
 2696 024b 03        		.uleb128 0x3
 2697 024c 0E        		.uleb128 0xe
 2698 024d 3A        		.uleb128 0x3a
 2699 024e 0B        		.uleb128 0xb
 2700 024f 3B        		.uleb128 0x3b
 2701 0250 05        		.uleb128 0x5
 2702 0251 49        		.uleb128 0x49
 2703 0252 13        		.uleb128 0x13
 2704 0253 02        		.uleb128 0x2
 2705 0254 06        		.uleb128 0x6
 2706 0255 00        		.byte	0
 2707 0256 00        		.byte	0
 2708 0257 2C        		.uleb128 0x2c
 2709 0258 1D        		.uleb128 0x1d
 2710 0259 01        		.byte	0x1
 2711 025a 31        		.uleb128 0x31
 2712 025b 13        		.uleb128 0x13
 2713 025c 11        		.uleb128 0x11
 2714 025d 01        		.uleb128 0x1
 2715 025e 12        		.uleb128 0x12
 2716 025f 01        		.uleb128 0x1
 2717 0260 58        		.uleb128 0x58
 2718 0261 0B        		.uleb128 0xb
 2719 0262 59        		.uleb128 0x59
 2720 0263 05        		.uleb128 0x5
 2721 0264 01        		.uleb128 0x1
 2722 0265 13        		.uleb128 0x13
 2723 0266 00        		.byte	0
 2724 0267 00        		.byte	0
 2725 0268 2D        		.uleb128 0x2d
 2726 0269 0B        		.uleb128 0xb
 2727 026a 01        		.byte	0x1
 2728 026b 11        		.uleb128 0x11
 2729 026c 01        		.uleb128 0x1
 2730 026d 12        		.uleb128 0x12
GAS LISTING C:\Users\thouli\AppData\Local\Temp\cc8sA0gt.s 			page 72


 2731 026e 01        		.uleb128 0x1
 2732 026f 01        		.uleb128 0x1
 2733 0270 13        		.uleb128 0x13
 2734 0271 00        		.byte	0
 2735 0272 00        		.byte	0
 2736 0273 2E        		.uleb128 0x2e
 2737 0274 34        		.uleb128 0x34
 2738 0275 00        		.byte	0
 2739 0276 03        		.uleb128 0x3
 2740 0277 0E        		.uleb128 0xe
 2741 0278 3A        		.uleb128 0x3a
 2742 0279 0B        		.uleb128 0xb
 2743 027a 3B        		.uleb128 0x3b
 2744 027b 05        		.uleb128 0x5
 2745 027c 49        		.uleb128 0x49
 2746 027d 13        		.uleb128 0x13
 2747 027e 1C        		.uleb128 0x1c
 2748 027f 05        		.uleb128 0x5
 2749 0280 00        		.byte	0
 2750 0281 00        		.byte	0
 2751 0282 2F        		.uleb128 0x2f
 2752 0283 1D        		.uleb128 0x1d
 2753 0284 00        		.byte	0
 2754 0285 31        		.uleb128 0x31
 2755 0286 13        		.uleb128 0x13
 2756 0287 11        		.uleb128 0x11
 2757 0288 01        		.uleb128 0x1
 2758 0289 12        		.uleb128 0x12
 2759 028a 01        		.uleb128 0x1
 2760 028b 58        		.uleb128 0x58
 2761 028c 0B        		.uleb128 0xb
 2762 028d 59        		.uleb128 0x59
 2763 028e 05        		.uleb128 0x5
 2764 028f 00        		.byte	0
 2765 0290 00        		.byte	0
 2766 0291 30        		.uleb128 0x30
 2767 0292 34        		.uleb128 0x34
 2768 0293 00        		.byte	0
 2769 0294 03        		.uleb128 0x3
 2770 0295 08        		.uleb128 0x8
 2771 0296 3A        		.uleb128 0x3a
 2772 0297 0B        		.uleb128 0xb
 2773 0298 3B        		.uleb128 0x3b
 2774 0299 05        		.uleb128 0x5
 2775 029a 49        		.uleb128 0x49
 2776 029b 13        		.uleb128 0x13
 2777 029c 02        		.uleb128 0x2
 2778 029d 06        		.uleb128 0x6
 2779 029e 00        		.byte	0
 2780 029f 00        		.byte	0
 2781 02a0 31        		.uleb128 0x31
 2782 02a1 05        		.uleb128 0x5
 2783 02a2 00        		.byte	0
 2784 02a3 31        		.uleb128 0x31
 2785 02a4 13        		.uleb128 0x13
 2786 02a5 00        		.byte	0
 2787 02a6 00        		.byte	0
GAS LISTING C:\Users\thouli\AppData\Local\Temp\cc8sA0gt.s 			page 73


 2788 02a7 32        		.uleb128 0x32
 2789 02a8 34        		.uleb128 0x34
 2790 02a9 00        		.byte	0
 2791 02aa 31        		.uleb128 0x31
 2792 02ab 13        		.uleb128 0x13
 2793 02ac 00        		.byte	0
 2794 02ad 00        		.byte	0
 2795 02ae 33        		.uleb128 0x33
 2796 02af 8982 01   		.uleb128 0x4109
 2797 02b2 00        		.byte	0
 2798 02b3 11        		.uleb128 0x11
 2799 02b4 01        		.uleb128 0x1
 2800 02b5 31        		.uleb128 0x31
 2801 02b6 13        		.uleb128 0x13
 2802 02b7 00        		.byte	0
 2803 02b8 00        		.byte	0
 2804 02b9 34        		.uleb128 0x34
 2805 02ba 1D        		.uleb128 0x1d
 2806 02bb 01        		.byte	0x1
 2807 02bc 31        		.uleb128 0x31
 2808 02bd 13        		.uleb128 0x13
 2809 02be 11        		.uleb128 0x11
 2810 02bf 01        		.uleb128 0x1
 2811 02c0 12        		.uleb128 0x12
 2812 02c1 01        		.uleb128 0x1
 2813 02c2 58        		.uleb128 0x58
 2814 02c3 0B        		.uleb128 0xb
 2815 02c4 59        		.uleb128 0x59
 2816 02c5 05        		.uleb128 0x5
 2817 02c6 00        		.byte	0
 2818 02c7 00        		.byte	0
 2819 02c8 35        		.uleb128 0x35
 2820 02c9 0A        		.uleb128 0xa
 2821 02ca 00        		.byte	0
 2822 02cb 31        		.uleb128 0x31
 2823 02cc 13        		.uleb128 0x13
 2824 02cd 00        		.byte	0
 2825 02ce 00        		.byte	0
 2826 02cf 36        		.uleb128 0x36
 2827 02d0 0B        		.uleb128 0xb
 2828 02d1 01        		.byte	0x1
 2829 02d2 55        		.uleb128 0x55
 2830 02d3 06        		.uleb128 0x6
 2831 02d4 00        		.byte	0
 2832 02d5 00        		.byte	0
 2833 02d6 37        		.uleb128 0x37
 2834 02d7 0B        		.uleb128 0xb
 2835 02d8 01        		.byte	0x1
 2836 02d9 55        		.uleb128 0x55
 2837 02da 06        		.uleb128 0x6
 2838 02db 01        		.uleb128 0x1
 2839 02dc 13        		.uleb128 0x13
 2840 02dd 00        		.byte	0
 2841 02de 00        		.byte	0
 2842 02df 38        		.uleb128 0x38
 2843 02e0 8982 01   		.uleb128 0x4109
 2844 02e3 01        		.byte	0x1
GAS LISTING C:\Users\thouli\AppData\Local\Temp\cc8sA0gt.s 			page 74


 2845 02e4 11        		.uleb128 0x11
 2846 02e5 01        		.uleb128 0x1
 2847 02e6 31        		.uleb128 0x31
 2848 02e7 13        		.uleb128 0x13
 2849 02e8 00        		.byte	0
 2850 02e9 00        		.byte	0
 2851 02ea 39        		.uleb128 0x39
 2852 02eb 8A82 01   		.uleb128 0x410a
 2853 02ee 00        		.byte	0
 2854 02ef 02        		.uleb128 0x2
 2855 02f0 0A        		.uleb128 0xa
 2856 02f1 9142      		.uleb128 0x2111
 2857 02f3 0A        		.uleb128 0xa
 2858 02f4 00        		.byte	0
 2859 02f5 00        		.byte	0
 2860 02f6 3A        		.uleb128 0x3a
 2861 02f7 34        		.uleb128 0x34
 2862 02f8 00        		.byte	0
 2863 02f9 03        		.uleb128 0x3
 2864 02fa 0E        		.uleb128 0xe
 2865 02fb 3A        		.uleb128 0x3a
 2866 02fc 0B        		.uleb128 0xb
 2867 02fd 3B        		.uleb128 0x3b
 2868 02fe 0B        		.uleb128 0xb
 2869 02ff 49        		.uleb128 0x49
 2870 0300 13        		.uleb128 0x13
 2871 0301 02        		.uleb128 0x2
 2872 0302 0A        		.uleb128 0xa
 2873 0303 00        		.byte	0
 2874 0304 00        		.byte	0
 2875 0305 3B        		.uleb128 0x3b
 2876 0306 34        		.uleb128 0x34
 2877 0307 00        		.byte	0
 2878 0308 03        		.uleb128 0x3
 2879 0309 0E        		.uleb128 0xe
 2880 030a 3A        		.uleb128 0x3a
 2881 030b 0B        		.uleb128 0xb
 2882 030c 3B        		.uleb128 0x3b
 2883 030d 0B        		.uleb128 0xb
 2884 030e 49        		.uleb128 0x49
 2885 030f 13        		.uleb128 0x13
 2886 0310 3F        		.uleb128 0x3f
 2887 0311 0C        		.uleb128 0xc
 2888 0312 02        		.uleb128 0x2
 2889 0313 0A        		.uleb128 0xa
 2890 0314 00        		.byte	0
 2891 0315 00        		.byte	0
 2892 0316 3C        		.uleb128 0x3c
 2893 0317 26        		.uleb128 0x26
 2894 0318 00        		.byte	0
 2895 0319 49        		.uleb128 0x49
 2896 031a 13        		.uleb128 0x13
 2897 031b 00        		.byte	0
 2898 031c 00        		.byte	0
 2899 031d 3D        		.uleb128 0x3d
 2900 031e 21        		.uleb128 0x21
 2901 031f 00        		.byte	0
GAS LISTING C:\Users\thouli\AppData\Local\Temp\cc8sA0gt.s 			page 75


 2902 0320 00        		.byte	0
 2903 0321 00        		.byte	0
 2904 0322 3E        		.uleb128 0x3e
 2905 0323 34        		.uleb128 0x34
 2906 0324 00        		.byte	0
 2907 0325 03        		.uleb128 0x3
 2908 0326 0E        		.uleb128 0xe
 2909 0327 3A        		.uleb128 0x3a
 2910 0328 0B        		.uleb128 0xb
 2911 0329 3B        		.uleb128 0x3b
 2912 032a 05        		.uleb128 0x5
 2913 032b 49        		.uleb128 0x49
 2914 032c 13        		.uleb128 0x13
 2915 032d 3F        		.uleb128 0x3f
 2916 032e 0C        		.uleb128 0xc
 2917 032f 3C        		.uleb128 0x3c
 2918 0330 0C        		.uleb128 0xc
 2919 0331 00        		.byte	0
 2920 0332 00        		.byte	0
 2921 0333 3F        		.uleb128 0x3f
 2922 0334 2E        		.uleb128 0x2e
 2923 0335 00        		.byte	0
 2924 0336 3F        		.uleb128 0x3f
 2925 0337 0C        		.uleb128 0xc
 2926 0338 3C        		.uleb128 0x3c
 2927 0339 0C        		.uleb128 0xc
 2928 033a 8740      		.uleb128 0x2007
 2929 033c 0E        		.uleb128 0xe
 2930 033d 03        		.uleb128 0x3
 2931 033e 0E        		.uleb128 0xe
 2932 033f 3A        		.uleb128 0x3a
 2933 0340 0B        		.uleb128 0xb
 2934 0341 3B        		.uleb128 0x3b
 2935 0342 05        		.uleb128 0x5
 2936 0343 00        		.byte	0
 2937 0344 00        		.byte	0
 2938 0345 40        		.uleb128 0x40
 2939 0346 2E        		.uleb128 0x2e
 2940 0347 00        		.byte	0
 2941 0348 3F        		.uleb128 0x3f
 2942 0349 0C        		.uleb128 0xc
 2943 034a 3C        		.uleb128 0x3c
 2944 034b 0C        		.uleb128 0xc
 2945 034c 8740      		.uleb128 0x2007
 2946 034e 0E        		.uleb128 0xe
 2947 034f 03        		.uleb128 0x3
 2948 0350 0E        		.uleb128 0xe
 2949 0351 3A        		.uleb128 0x3a
 2950 0352 0B        		.uleb128 0xb
 2951 0353 3B        		.uleb128 0x3b
 2952 0354 0B        		.uleb128 0xb
 2953 0355 00        		.byte	0
 2954 0356 00        		.byte	0
 2955 0357 00        		.byte	0
 2956               		.section	.debug_loc,"",@progbits
 2957               	.Ldebug_loc0:
 2958               	.LLST0:
GAS LISTING C:\Users\thouli\AppData\Local\Temp\cc8sA0gt.s 			page 76


 2959 0000 0000 0000 		.long	.LVL0
 2960 0004 0000 0000 		.long	.LVL1
 2961 0008 0600      		.word	0x6
 2962 000a 68        		.byte	0x68
 2963 000b 93        		.byte	0x93
 2964 000c 01        		.uleb128 0x1
 2965 000d 69        		.byte	0x69
 2966 000e 93        		.byte	0x93
 2967 000f 01        		.uleb128 0x1
 2968 0010 0000 0000 		.long	.LVL1
 2969 0014 0000 0000 		.long	.LVL2
 2970 0018 0400      		.word	0x4
 2971 001a F3        		.byte	0xf3
 2972 001b 01        		.uleb128 0x1
 2973 001c 68        		.byte	0x68
 2974 001d 9F        		.byte	0x9f
 2975 001e 0000 0000 		.long	.LVL2
 2976 0022 0000 0000 		.long	.LVL4
 2977 0026 0600      		.word	0x6
 2978 0028 68        		.byte	0x68
 2979 0029 93        		.byte	0x93
 2980 002a 01        		.uleb128 0x1
 2981 002b 69        		.byte	0x69
 2982 002c 93        		.byte	0x93
 2983 002d 01        		.uleb128 0x1
 2984 002e 0000 0000 		.long	0
 2985 0032 0000 0000 		.long	0
 2986               	.LLST1:
 2987 0036 0000 0000 		.long	.LVL5
 2988 003a 0000 0000 		.long	.LVL6
 2989 003e 0600      		.word	0x6
 2990 0040 9E        		.byte	0x9e
 2991 0041 04        		.uleb128 0x4
 2992 0042 0000 9643 		.long	0x43960000
 2993 0046 0000 0000 		.long	0
 2994 004a 0000 0000 		.long	0
 2995               	.LLST2:
 2996 004e 0000 0000 		.long	.LVL5
 2997 0052 0000 0000 		.long	.LVL6
 2998 0056 0600      		.word	0x6
 2999 0058 9E        		.byte	0x9e
 3000 0059 04        		.uleb128 0x4
 3001 005a E00F 974A 		.long	0x4a970fe0
 3002 005e 0000 0000 		.long	0
 3003 0062 0000 0000 		.long	0
 3004               	.LLST3:
 3005 0066 0000 0000 		.long	.LVL5
 3006 006a 0000 0000 		.long	.LVL6
 3007 006e 0600      		.word	0x6
 3008 0070 0C        		.byte	0xc
 3009 0071 F087 4B00 		.long	0x4b87f0
 3010 0075 9F        		.byte	0x9f
 3011 0076 0000 0000 		.long	0
 3012 007a 0000 0000 		.long	0
 3013               	.LLST4:
 3014 007e 0000 0000 		.long	.LVL9
 3015 0082 0000 0000 		.long	.LVL11
GAS LISTING C:\Users\thouli\AppData\Local\Temp\cc8sA0gt.s 			page 77


 3016 0086 0100      		.word	0x1
 3017 0088 6E        		.byte	0x6e
 3018 0089 0000 0000 		.long	0
 3019 008d 0000 0000 		.long	0
 3020               	.LLST5:
 3021 0091 0000 0000 		.long	.LVL7
 3022 0095 0000 0000 		.long	.LVL8
 3023 0099 0600      		.word	0x6
 3024 009b 9E        		.byte	0x9e
 3025 009c 04        		.uleb128 0x4
 3026 009d 0000 803F 		.long	0x3f800000
 3027 00a1 0000 0000 		.long	0
 3028 00a5 0000 0000 		.long	0
 3029               	.LLST6:
 3030 00a9 0000 0000 		.long	.LVL7
 3031 00ad 0000 0000 		.long	.LVL8
 3032 00b1 0600      		.word	0x6
 3033 00b3 9E        		.byte	0x9e
 3034 00b4 04        		.uleb128 0x4
 3035 00b5 00E8 8046 		.long	0x4680e800
 3036 00b9 0000 0000 		.long	0
 3037 00bd 0000 0000 		.long	0
 3038               	.LLST7:
 3039 00c1 0000 0000 		.long	.LVL7
 3040 00c5 0000 0000 		.long	.LVL8
 3041 00c9 0400      		.word	0x4
 3042 00cb 0A        		.byte	0xa
 3043 00cc 7440      		.word	0x4074
 3044 00ce 9F        		.byte	0x9f
 3045 00cf 0000 0000 		.long	0
 3046 00d3 0000 0000 		.long	0
 3047               	.LLST9:
 3048 00d7 0000 0000 		.long	.LVL10
 3049 00db 0000 0000 		.long	.LVL13
 3050 00df 0400      		.word	0x4
 3051 00e1 0A        		.byte	0xa
 3052 00e2 7D19      		.word	0x197d
 3053 00e4 9F        		.byte	0x9f
 3054 00e5 0000 0000 		.long	0
 3055 00e9 0000 0000 		.long	0
 3056               	.LLST10:
 3057 00ed 0000 0000 		.long	.LVL12
 3058 00f1 0000 0000 		.long	.LVL13
 3059 00f5 0100      		.word	0x1
 3060 00f7 6E        		.byte	0x6e
 3061 00f8 0000 0000 		.long	0
 3062 00fc 0000 0000 		.long	0
 3063               	.LLST11:
 3064 0100 0000 0000 		.long	.LVL15
 3065 0104 0000 0000 		.long	.LVL16
 3066 0108 0400      		.word	0x4
 3067 010a 0A        		.byte	0xa
 3068 010b 7C15      		.word	0x157c
 3069 010d 9F        		.byte	0x9f
 3070 010e 0000 0000 		.long	.LVL16
 3071 0112 0000 0000 		.long	.LVL21
 3072 0116 0600      		.word	0x6
GAS LISTING C:\Users\thouli\AppData\Local\Temp\cc8sA0gt.s 			page 78


 3073 0118 6C        		.byte	0x6c
 3074 0119 93        		.byte	0x93
 3075 011a 01        		.uleb128 0x1
 3076 011b 6D        		.byte	0x6d
 3077 011c 93        		.byte	0x93
 3078 011d 01        		.uleb128 0x1
 3079 011e 0000 0000 		.long	.LVL21
 3080 0122 0000 0000 		.long	.LVL22
 3081 0126 0300      		.word	0x3
 3082 0128 8C        		.byte	0x8c
 3083 0129 7F        		.sleb128 -1
 3084 012a 9F        		.byte	0x9f
 3085 012b 0000 0000 		.long	.LVL22
 3086 012f 0000 0000 		.long	.LVL72
 3087 0133 0600      		.word	0x6
 3088 0135 6C        		.byte	0x6c
 3089 0136 93        		.byte	0x93
 3090 0137 01        		.uleb128 0x1
 3091 0138 6D        		.byte	0x6d
 3092 0139 93        		.byte	0x93
 3093 013a 01        		.uleb128 0x1
 3094 013b 0000 0000 		.long	0
 3095 013f 0000 0000 		.long	0
 3096               	.LLST12:
 3097 0143 0000 0000 		.long	.LVL15
 3098 0147 0000 0000 		.long	.LVL16
 3099 014b 0300      		.word	0x3
 3100 014d 08        		.byte	0x8
 3101 014e 64        		.byte	0x64
 3102 014f 9F        		.byte	0x9f
 3103 0150 0000 0000 		.long	.LVL16
 3104 0154 0000 0000 		.long	.LVL91
 3105 0158 0100      		.word	0x1
 3106 015a 61        		.byte	0x61
 3107 015b 0000 0000 		.long	0
 3108 015f 0000 0000 		.long	0
 3109               	.LLST13:
 3110 0163 0000 0000 		.long	.LVL23
 3111 0167 0000 0000 		.long	.LVL25
 3112 016b 0600      		.word	0x6
 3113 016d 6E        		.byte	0x6e
 3114 016e 93        		.byte	0x93
 3115 016f 01        		.uleb128 0x1
 3116 0170 6F        		.byte	0x6f
 3117 0171 93        		.byte	0x93
 3118 0172 01        		.uleb128 0x1
 3119 0173 0000 0000 		.long	0
 3120 0177 0000 0000 		.long	0
 3121               	.LLST14:
 3122 017b 0000 0000 		.long	.LVL26
 3123 017f 0000 0000 		.long	.LVL28
 3124 0183 0100      		.word	0x1
 3125 0185 68        		.byte	0x68
 3126 0186 0000 0000 		.long	0
 3127 018a 0000 0000 		.long	0
 3128               	.LLST15:
 3129 018e 0000 0000 		.long	.LVL27
GAS LISTING C:\Users\thouli\AppData\Local\Temp\cc8sA0gt.s 			page 79


 3130 0192 0000 0000 		.long	.LVL28
 3131 0196 0100      		.word	0x1
 3132 0198 68        		.byte	0x68
 3133 0199 0000 0000 		.long	0
 3134 019d 0000 0000 		.long	0
 3135               	.LLST16:
 3136 01a1 0000 0000 		.long	.LVL67
 3137 01a5 0000 0000 		.long	.LVL69
 3138 01a9 0100      		.word	0x1
 3139 01ab 68        		.byte	0x68
 3140 01ac 0000 0000 		.long	0
 3141 01b0 0000 0000 		.long	0
 3142               	.LLST17:
 3143 01b4 0000 0000 		.long	.LVL29
 3144 01b8 0000 0000 		.long	.LVL30
 3145 01bc 0B00      		.word	0xb
 3146 01be 03        		.byte	0x3
 3147 01bf 0000 0000 		.long	usbRxBuf+1
 3148 01c3 94        		.byte	0x94
 3149 01c4 01        		.byte	0x1
 3150 01c5 08        		.byte	0x8
 3151 01c6 60        		.byte	0x60
 3152 01c7 1A        		.byte	0x1a
 3153 01c8 9F        		.byte	0x9f
 3154 01c9 0000 0000 		.long	.LVL30
 3155 01cd 0000 0000 		.long	.LVL32
 3156 01d1 0100      		.word	0x1
 3157 01d3 68        		.byte	0x68
 3158 01d4 0000 0000 		.long	.LVL32
 3159 01d8 0000 0000 		.long	.LVL33
 3160 01dc 0B00      		.word	0xb
 3161 01de 03        		.byte	0x3
 3162 01df 0000 0000 		.long	usbRxBuf+1
 3163 01e3 94        		.byte	0x94
 3164 01e4 01        		.byte	0x1
 3165 01e5 08        		.byte	0x8
 3166 01e6 60        		.byte	0x60
 3167 01e7 1A        		.byte	0x1a
 3168 01e8 9F        		.byte	0x9f
 3169 01e9 0000 0000 		.long	.LVL33
 3170 01ed 0000 0000 		.long	.LVL34
 3171 01f1 0100      		.word	0x1
 3172 01f3 68        		.byte	0x68
 3173 01f4 0000 0000 		.long	.LVL34
 3174 01f8 0000 0000 		.long	.LVL35
 3175 01fc 0B00      		.word	0xb
 3176 01fe 03        		.byte	0x3
 3177 01ff 0000 0000 		.long	usbRxBuf+1
 3178 0203 94        		.byte	0x94
 3179 0204 01        		.byte	0x1
 3180 0205 08        		.byte	0x8
 3181 0206 60        		.byte	0x60
 3182 0207 1A        		.byte	0x1a
 3183 0208 9F        		.byte	0x9f
 3184 0209 0000 0000 		.long	.LVL35
 3185 020d 0000 0000 		.long	.LVL36
 3186 0211 0100      		.word	0x1
GAS LISTING C:\Users\thouli\AppData\Local\Temp\cc8sA0gt.s 			page 80


 3187 0213 68        		.byte	0x68
 3188 0214 0000 0000 		.long	.LVL36
 3189 0218 0000 0000 		.long	.LVL37-1
 3190 021c 0B00      		.word	0xb
 3191 021e 03        		.byte	0x3
 3192 021f 0000 0000 		.long	usbRxBuf+1
 3193 0223 94        		.byte	0x94
 3194 0224 01        		.byte	0x1
 3195 0225 08        		.byte	0x8
 3196 0226 60        		.byte	0x60
 3197 0227 1A        		.byte	0x1a
 3198 0228 9F        		.byte	0x9f
 3199 0229 0000 0000 		.long	.LVL39
 3200 022d 0000 0000 		.long	.LVL40
 3201 0231 0100      		.word	0x1
 3202 0233 68        		.byte	0x68
 3203 0234 0000 0000 		.long	.LVL41
 3204 0238 0000 0000 		.long	.LVL42
 3205 023c 0100      		.word	0x1
 3206 023e 68        		.byte	0x68
 3207 023f 0000 0000 		.long	.LVL42
 3208 0243 0000 0000 		.long	.LVL67
 3209 0247 0B00      		.word	0xb
 3210 0249 03        		.byte	0x3
 3211 024a 0000 0000 		.long	usbRxBuf+1
 3212 024e 94        		.byte	0x94
 3213 024f 01        		.byte	0x1
 3214 0250 08        		.byte	0x8
 3215 0251 60        		.byte	0x60
 3216 0252 1A        		.byte	0x1a
 3217 0253 9F        		.byte	0x9f
 3218 0254 0000 0000 		.long	0
 3219 0258 0000 0000 		.long	0
 3220               	.LLST18:
 3221 025c 0000 0000 		.long	.LVL41
 3222 0260 0000 0000 		.long	.LVL45
 3223 0264 0200      		.word	0x2
 3224 0266 30        		.byte	0x30
 3225 0267 9F        		.byte	0x9f
 3226 0268 0000 0000 		.long	.LVL45
 3227 026c 0000 0000 		.long	.LVL48
 3228 0270 0200      		.word	0x2
 3229 0272 32        		.byte	0x32
 3230 0273 9F        		.byte	0x9f
 3231 0274 0000 0000 		.long	.LVL48
 3232 0278 0000 0000 		.long	.LVL66
 3233 027c 0200      		.word	0x2
 3234 027e 30        		.byte	0x30
 3235 027f 9F        		.byte	0x9f
 3236 0280 0000 0000 		.long	.LVL66
 3237 0284 0000 0000 		.long	.LVL67
 3238 0288 0100      		.word	0x1
 3239 028a 68        		.byte	0x68
 3240 028b 0000 0000 		.long	0
 3241 028f 0000 0000 		.long	0
 3242               	.LLST19:
 3243 0293 0000 0000 		.long	.LVL46
GAS LISTING C:\Users\thouli\AppData\Local\Temp\cc8sA0gt.s 			page 81


 3244 0297 0000 0000 		.long	.LVL48
 3245 029b 0600      		.word	0x6
 3246 029d 62        		.byte	0x62
 3247 029e 93        		.byte	0x93
 3248 029f 01        		.uleb128 0x1
 3249 02a0 63        		.byte	0x63
 3250 02a1 93        		.byte	0x93
 3251 02a2 01        		.uleb128 0x1
 3252 02a3 0000 0000 		.long	.LVL60
 3253 02a7 0000 0000 		.long	.LVL62
 3254 02ab 0600      		.word	0x6
 3255 02ad 62        		.byte	0x62
 3256 02ae 93        		.byte	0x93
 3257 02af 01        		.uleb128 0x1
 3258 02b0 63        		.byte	0x63
 3259 02b1 93        		.byte	0x93
 3260 02b2 01        		.uleb128 0x1
 3261 02b3 0000 0000 		.long	.LVL64
 3262 02b7 0000 0000 		.long	.LVL65
 3263 02bb 0600      		.word	0x6
 3264 02bd 62        		.byte	0x62
 3265 02be 93        		.byte	0x93
 3266 02bf 01        		.uleb128 0x1
 3267 02c0 63        		.byte	0x63
 3268 02c1 93        		.byte	0x93
 3269 02c2 01        		.uleb128 0x1
 3270 02c3 0000 0000 		.long	.LVL66
 3271 02c7 0000 0000 		.long	.LVL67
 3272 02cb 0600      		.word	0x6
 3273 02cd 62        		.byte	0x62
 3274 02ce 93        		.byte	0x93
 3275 02cf 01        		.uleb128 0x1
 3276 02d0 63        		.byte	0x63
 3277 02d1 93        		.byte	0x93
 3278 02d2 01        		.uleb128 0x1
 3279 02d3 0000 0000 		.long	0
 3280 02d7 0000 0000 		.long	0
 3281               	.LLST20:
 3282 02db 0000 0000 		.long	.LVL42
 3283 02df 0000 0000 		.long	.LVL47
 3284 02e3 0100      		.word	0x1
 3285 02e5 68        		.byte	0x68
 3286 02e6 0000 0000 		.long	.LVL47
 3287 02ea 0000 0000 		.long	.LVL48
 3288 02ee 0500      		.word	0x5
 3289 02f0 03        		.byte	0x3
 3290 02f1 0000 0000 		.long	usbRxBuf+3
 3291 02f5 0000 0000 		.long	.LVL48
 3292 02f9 0000 0000 		.long	.LVL51
 3293 02fd 0100      		.word	0x1
 3294 02ff 68        		.byte	0x68
 3295 0300 0000 0000 		.long	.LVL51
 3296 0304 0000 0000 		.long	.LVL52
 3297 0308 0500      		.word	0x5
 3298 030a 03        		.byte	0x3
 3299 030b 0000 0000 		.long	usbRxBuf+3
 3300 030f 0000 0000 		.long	.LVL52
GAS LISTING C:\Users\thouli\AppData\Local\Temp\cc8sA0gt.s 			page 82


 3301 0313 0000 0000 		.long	.LVL54
 3302 0317 0100      		.word	0x1
 3303 0319 68        		.byte	0x68
 3304 031a 0000 0000 		.long	.LVL54
 3305 031e 0000 0000 		.long	.LVL55
 3306 0322 0500      		.word	0x5
 3307 0324 03        		.byte	0x3
 3308 0325 0000 0000 		.long	usbRxBuf+3
 3309 0329 0000 0000 		.long	.LVL55
 3310 032d 0000 0000 		.long	.LVL58
 3311 0331 0100      		.word	0x1
 3312 0333 68        		.byte	0x68
 3313 0334 0000 0000 		.long	.LVL58
 3314 0338 0000 0000 		.long	.LVL59
 3315 033c 0500      		.word	0x5
 3316 033e 03        		.byte	0x3
 3317 033f 0000 0000 		.long	usbRxBuf+3
 3318 0343 0000 0000 		.long	.LVL59
 3319 0347 0000 0000 		.long	.LVL61
 3320 034b 0100      		.word	0x1
 3321 034d 68        		.byte	0x68
 3322 034e 0000 0000 		.long	.LVL61
 3323 0352 0000 0000 		.long	.LVL62
 3324 0356 0500      		.word	0x5
 3325 0358 03        		.byte	0x3
 3326 0359 0000 0000 		.long	usbRxBuf+3
 3327 035d 0000 0000 		.long	.LVL62
 3328 0361 0000 0000 		.long	.LVL63
 3329 0365 0100      		.word	0x1
 3330 0367 68        		.byte	0x68
 3331 0368 0000 0000 		.long	.LVL63
 3332 036c 0000 0000 		.long	.LVL65
 3333 0370 0500      		.word	0x5
 3334 0372 03        		.byte	0x3
 3335 0373 0000 0000 		.long	usbRxBuf+3
 3336 0377 0000 0000 		.long	.LVL65
 3337 037b 0000 0000 		.long	.LVL66
 3338 037f 0100      		.word	0x1
 3339 0381 68        		.byte	0x68
 3340 0382 0000 0000 		.long	.LVL66
 3341 0386 0000 0000 		.long	.LVL67
 3342 038a 0500      		.word	0x5
 3343 038c 03        		.byte	0x3
 3344 038d 0000 0000 		.long	usbRxBuf+3
 3345 0391 0000 0000 		.long	0
 3346 0395 0000 0000 		.long	0
 3347               	.LLST21:
 3348 0399 0000 0000 		.long	.LVL43
 3349 039d 0000 0000 		.long	.LVL49
 3350 03a1 0100      		.word	0x1
 3351 03a3 69        		.byte	0x69
 3352 03a4 0000 0000 		.long	.LVL49
 3353 03a8 0000 0000 		.long	.LVL59
 3354 03ac 0500      		.word	0x5
 3355 03ae 03        		.byte	0x3
 3356 03af 0000 0000 		.long	usbRxBuf+2
 3357 03b3 0000 0000 		.long	.LVL59
GAS LISTING C:\Users\thouli\AppData\Local\Temp\cc8sA0gt.s 			page 83


 3358 03b7 0000 0000 		.long	.LVL67
 3359 03bb 0100      		.word	0x1
 3360 03bd 69        		.byte	0x69
 3361 03be 0000 0000 		.long	0
 3362 03c2 0000 0000 		.long	0
 3363               	.LLST22:
 3364 03c6 0000 0000 		.long	.LVL44
 3365 03ca 0000 0000 		.long	.LVL48
 3366 03ce 0A00      		.word	0xa
 3367 03d0 03        		.byte	0x3
 3368 03d1 0000 0000 		.long	usbRxBuf+1
 3369 03d5 94        		.byte	0x94
 3370 03d6 01        		.byte	0x1
 3371 03d7 4F        		.byte	0x4f
 3372 03d8 1A        		.byte	0x1a
 3373 03d9 9F        		.byte	0x9f
 3374 03da 0000 0000 		.long	0
 3375 03de 0000 0000 		.long	0
 3376               	.LLST23:
 3377 03e2 0000 0000 		.long	.LVL49
 3378 03e6 0000 0000 		.long	.LVL50
 3379 03ea 0200      		.word	0x2
 3380 03ec 30        		.byte	0x30
 3381 03ed 9F        		.byte	0x9f
 3382 03ee 0000 0000 		.long	.LVL50
 3383 03f2 0000 0000 		.long	.LVL52
 3384 03f6 0200      		.word	0x2
 3385 03f8 42        		.byte	0x42
 3386 03f9 9F        		.byte	0x9f
 3387 03fa 0000 0000 		.long	.LVL52
 3388 03fe 0000 0000 		.long	.LVL53
 3389 0402 0200      		.word	0x2
 3390 0404 30        		.byte	0x30
 3391 0405 9F        		.byte	0x9f
 3392 0406 0000 0000 		.long	.LVL53
 3393 040a 0000 0000 		.long	.LVL55
 3394 040e 0200      		.word	0x2
 3395 0410 42        		.byte	0x42
 3396 0411 9F        		.byte	0x9f
 3397 0412 0000 0000 		.long	.LVL55
 3398 0416 0000 0000 		.long	.LVL57
 3399 041a 0200      		.word	0x2
 3400 041c 30        		.byte	0x30
 3401 041d 9F        		.byte	0x9f
 3402 041e 0000 0000 		.long	.LVL57
 3403 0422 0000 0000 		.long	.LVL59
 3404 0426 0200      		.word	0x2
 3405 0428 34        		.byte	0x34
 3406 0429 9F        		.byte	0x9f
 3407 042a 0000 0000 		.long	0
 3408 042e 0000 0000 		.long	0
 3409               	.LLST24:
 3410 0432 0000 0000 		.long	.LVL49
 3411 0436 0000 0000 		.long	.LVL59
 3412 043a 0300      		.word	0x3
 3413 043c 08        		.byte	0x8
 3414 043d 40        		.byte	0x40
GAS LISTING C:\Users\thouli\AppData\Local\Temp\cc8sA0gt.s 			page 84


 3415 043e 9F        		.byte	0x9f
 3416 043f 0000 0000 		.long	0
 3417 0443 0000 0000 		.long	0
 3418               	.LLST25:
 3419 0447 0000 0000 		.long	.LVL49
 3420 044b 0000 0000 		.long	.LVL59
 3421 044f 0100      		.word	0x1
 3422 0451 69        		.byte	0x69
 3423 0452 0000 0000 		.long	0
 3424 0456 0000 0000 		.long	0
 3425               	.LLST26:
 3426 045a 0000 0000 		.long	.LVL56
 3427 045e 0000 0000 		.long	.LVL58
 3428 0462 0100      		.word	0x1
 3429 0464 68        		.byte	0x68
 3430 0465 0000 0000 		.long	.LVL58
 3431 0469 0000 0000 		.long	.LVL59
 3432 046d 0500      		.word	0x5
 3433 046f 03        		.byte	0x3
 3434 0470 0000 0000 		.long	usbRxBuf+3
 3435 0474 0000 0000 		.long	0
 3436 0478 0000 0000 		.long	0
 3437               	.LLST27:
 3438 047c 0000 0000 		.long	.LVL71
 3439 0480 0000 0000 		.long	.LVL73
 3440 0484 0100      		.word	0x1
 3441 0486 68        		.byte	0x68
 3442 0487 0000 0000 		.long	.LVL73
 3443 048b 0000 0000 		.long	.LVL84
 3444 048f 0100      		.word	0x1
 3445 0491 6C        		.byte	0x6c
 3446 0492 0000 0000 		.long	.LVL84
 3447 0496 0000 0000 		.long	.LVL85
 3448 049a 0300      		.word	0x3
 3449 049c 8C        		.byte	0x8c
 3450 049d 7C        		.sleb128 -4
 3451 049e 9F        		.byte	0x9f
 3452 049f 0000 0000 		.long	0
 3453 04a3 0000 0000 		.long	0
 3454               	.LLST28:
 3455 04a7 0000 0000 		.long	.LVL84
 3456 04ab 0000 0000 		.long	.LVL85
 3457 04af 0100      		.word	0x1
 3458 04b1 6C        		.byte	0x6c
 3459 04b2 0000 0000 		.long	0
 3460 04b6 0000 0000 		.long	0
 3461               	.LLST29:
 3462 04ba 0000 0000 		.long	.LVL77
 3463 04be 0000 0000 		.long	.LVL78
 3464 04c2 0600      		.word	0x6
 3465 04c4 6A        		.byte	0x6a
 3466 04c5 93        		.byte	0x93
 3467 04c6 01        		.uleb128 0x1
 3468 04c7 6B        		.byte	0x6b
 3469 04c8 93        		.byte	0x93
 3470 04c9 01        		.uleb128 0x1
 3471 04ca 0000 0000 		.long	0
GAS LISTING C:\Users\thouli\AppData\Local\Temp\cc8sA0gt.s 			page 85


 3472 04ce 0000 0000 		.long	0
 3473               	.LLST30:
 3474 04d2 0000 0000 		.long	.LVL74
 3475 04d6 0000 0000 		.long	.LVL82
 3476 04da 0100      		.word	0x1
 3477 04dc 6C        		.byte	0x6c
 3478 04dd 0000 0000 		.long	0
 3479 04e1 0000 0000 		.long	0
 3480               	.LLST31:
 3481 04e5 0000 0000 		.long	.LVL75
 3482 04e9 0000 0000 		.long	.LVL78
 3483 04ed 0100      		.word	0x1
 3484 04ef 6C        		.byte	0x6c
 3485 04f0 0000 0000 		.long	.LVL78
 3486 04f4 0000 0000 		.long	.LVL82
 3487 04f8 0100      		.word	0x1
 3488 04fa 68        		.byte	0x68
 3489 04fb 0000 0000 		.long	0
 3490 04ff 0000 0000 		.long	0
 3491               	.LLST32:
 3492 0503 0000 0000 		.long	.LVL76
 3493 0507 0000 0000 		.long	.LVL82
 3494 050b 0600      		.word	0x6
 3495 050d 6E        		.byte	0x6e
 3496 050e 93        		.byte	0x93
 3497 050f 01        		.uleb128 0x1
 3498 0510 6F        		.byte	0x6f
 3499 0511 93        		.byte	0x93
 3500 0512 01        		.uleb128 0x1
 3501 0513 0000 0000 		.long	0
 3502 0517 0000 0000 		.long	0
 3503               	.LLST33:
 3504 051b 0000 0000 		.long	.LVL79
 3505 051f 0000 0000 		.long	.LVL82
 3506 0523 0100      		.word	0x1
 3507 0525 69        		.byte	0x69
 3508 0526 0000 0000 		.long	0
 3509 052a 0000 0000 		.long	0
 3510               	.LLST34:
 3511 052e 0000 0000 		.long	.LVL78
 3512 0532 0000 0000 		.long	.LVL80
 3513 0536 0600      		.word	0x6
 3514 0538 6E        		.byte	0x6e
 3515 0539 93        		.byte	0x93
 3516 053a 01        		.uleb128 0x1
 3517 053b 6F        		.byte	0x6f
 3518 053c 93        		.byte	0x93
 3519 053d 01        		.uleb128 0x1
 3520 053e 0000 0000 		.long	.LVL80
 3521 0542 0000 0000 		.long	.LVL82
 3522 0546 0300      		.word	0x3
 3523 0548 8E        		.byte	0x8e
 3524 0549 7F        		.sleb128 -1
 3525 054a 9F        		.byte	0x9f
 3526 054b 0000 0000 		.long	0
 3527 054f 0000 0000 		.long	0
 3528               	.LLST36:
GAS LISTING C:\Users\thouli\AppData\Local\Temp\cc8sA0gt.s 			page 86


 3529 0553 0000 0000 		.long	.LVL86
 3530 0557 0000 0000 		.long	.LVL88
 3531 055b 0400      		.word	0x4
 3532 055d 0A        		.byte	0xa
 3533 055e 7D19      		.word	0x197d
 3534 0560 9F        		.byte	0x9f
 3535 0561 0000 0000 		.long	0
 3536 0565 0000 0000 		.long	0
 3537               	.LLST37:
 3538 0569 0000 0000 		.long	.LVL87
 3539 056d 0000 0000 		.long	.LVL88
 3540 0571 0100      		.word	0x1
 3541 0573 6E        		.byte	0x6e
 3542 0574 0000 0000 		.long	0
 3543 0578 0000 0000 		.long	0
 3544               		.section	.debug_aranges,"",@progbits
 3545 0000 2C00 0000 		.long	0x2c
 3546 0004 0200      		.word	0x2
 3547 0006 0000 0000 		.long	.Ldebug_info0
 3548 000a 04        		.byte	0x4
 3549 000b 00        		.byte	0
 3550 000c 0000      		.word	0
 3551 000e 0000      		.word	0
 3552 0010 0000 0000 		.long	.LFB22
 3553 0014 2E00 0000 		.long	.LFE22-.LFB22
 3554 0018 0000 0000 		.long	.LFB24
 3555 001c 3600 0000 		.long	.LFE24-.LFB24
 3556 0020 0000 0000 		.long	.LFB26
 3557 0024 8A02 0000 		.long	.LFE26-.LFB26
 3558 0028 0000 0000 		.long	0
 3559 002c 0000 0000 		.long	0
 3560               		.section	.debug_ranges,"",@progbits
 3561               	.Ldebug_ranges0:
 3562 0000 0000 0000 		.long	.LBB85
 3563 0004 0000 0000 		.long	.LBE85
 3564 0008 0000 0000 		.long	.LBB93
 3565 000c 0000 0000 		.long	.LBE93
 3566 0010 0000 0000 		.long	.LBB94
 3567 0014 0000 0000 		.long	.LBE94
 3568 0018 0000 0000 		.long	.LBB95
 3569 001c 0000 0000 		.long	.LBE95
 3570 0020 0000 0000 		.long	0
 3571 0024 0000 0000 		.long	0
 3572 0028 0000 0000 		.long	.LBB86
 3573 002c 0000 0000 		.long	.LBE86
 3574 0030 0000 0000 		.long	.LBB87
 3575 0034 0000 0000 		.long	.LBE87
 3576 0038 0000 0000 		.long	.LBB92
 3577 003c 0000 0000 		.long	.LBE92
 3578 0040 0000 0000 		.long	0
 3579 0044 0000 0000 		.long	0
 3580 0048 0000 0000 		.long	.LFB22
 3581 004c 0000 0000 		.long	.LFE22
 3582 0050 0000 0000 		.long	.LFB24
 3583 0054 0000 0000 		.long	.LFE24
 3584 0058 0000 0000 		.long	.LFB26
 3585 005c 0000 0000 		.long	.LFE26
GAS LISTING C:\Users\thouli\AppData\Local\Temp\cc8sA0gt.s 			page 87


 3586 0060 0000 0000 		.long	0
 3587 0064 0000 0000 		.long	0
 3588               		.section	.debug_line,"",@progbits
 3589               	.Ldebug_line0:
 3590 0000 8F04 0000 		.section	.debug_str,"MS",@progbits,1
 3590      0200 1201 
 3590      0000 0201 
 3590      FB0E 0A00 
 3590      0101 0101 
 3591               	.LASF13:
 3592 0000 776F 7264 		.string	"word"
 3592      00
 3593               	.LASF38:
 3594 0005 7573 6244 		.string	"usbDriverDescriptor"
 3594      7269 7665 
 3594      7244 6573 
 3594      6372 6970 
 3594      746F 7200 
 3595               	.LASF53:
 3596 0019 7772 6974 		.string	"writeWordToPageBuffer"
 3596      6557 6F72 
 3596      6454 6F50 
 3596      6167 6542 
 3596      7566 6665 
 3597               	.LASF61:
 3598 002f 6661 7374 		.string	"fastctr"
 3598      6374 7200 
 3599               	.LASF42:
 3600 0037 7265 6369 		.string	"recipient"
 3600      7069 656E 
 3600      7400 
 3601               	.LASF87:
 3602 0041 6361 6C69 		.string	"calibrateOscillatorASM"
 3602      6272 6174 
 3602      654F 7363 
 3602      696C 6C61 
 3602      746F 7241 
 3603               	.LASF68:
 3604 0058 7573 6244 		.string	"usbDescriptorDevice"
 3604      6573 6372 
 3604      6970 746F 
 3604      7244 6576 
 3604      6963 6500 
 3605               	.LASF0:
 3606 006c 696E 7438 		.string	"int8_t"
 3606      5F74 00
 3607               	.LASF17:
 3608 0073 6252 6571 		.string	"bRequest"
 3608      7565 7374 
 3608      00
 3609               	.LASF27:
 3610 007c 636D 645F 		.string	"cmd_write_data"
 3610      7772 6974 
 3610      655F 6461 
 3610      7461 00
 3611               	.LASF60:
 3612 008b 7374 6F72 		.string	"stored_osc_calibration"
GAS LISTING C:\Users\thouli\AppData\Local\Temp\cc8sA0gt.s 			page 88


 3612      6564 5F6F 
 3612      7363 5F63 
 3612      616C 6962 
 3612      7261 7469 
 3613               	.LASF94:
 3614 00a2 5F5F 6275 		.string	"__builtin_avr_delay_cycles"
 3614      696C 7469 
 3614      6E5F 6176 
 3614      725F 6465 
 3614      6C61 795F 
 3615               	.LASF48:
 3616 00bd 7479 7065 		.string	"type"
 3616      00
 3617               	.LASF35:
 3618 00c2 5F5F 746D 		.string	"__tmp"
 3618      7000 
 3619               	.LASF66:
 3620 00c8 7573 6243 		.string	"usbConfiguration"
 3620      6F6E 6669 
 3620      6775 7261 
 3620      7469 6F6E 
 3620      00
 3621               	.LASF12:
 3622 00d9 7369 7A65 		.string	"sizetype"
 3622      7479 7065 
 3622      00
 3623               	.LASF59:
 3624 00e2 6F73 6363 		.string	"osccal_tmp"
 3624      616C 5F74 
 3624      6D70 00
 3625               	.LASF52:
 3626 00ed 7573 6249 		.string	"usbInit"
 3626      6E69 7400 
 3627               	.LASF97:
 3628 00f5 6D61 696E 		.string	"main"
 3628      00
 3629               	.LASF80:
 3630 00fa 7573 6254 		.string	"usbTxLen"
 3630      784C 656E 
 3630      00
 3631               	.LASF93:
 3632 0103 7573 6252 		.string	"usbRequest"
 3632      6571 7565 
 3632      7374 00
 3633               	.LASF54:
 3634 010e 696E 6974 		.string	"initHardware"
 3634      4861 7264 
 3634      7761 7265 
 3634      00
 3635               	.LASF41:
 3636 011b 7661 6C75 		.string	"value"
 3636      6500 
 3637               	.LASF47:
 3638 0121 7265 706C 		.string	"replyLen"
 3638      794C 656E 
 3638      00
 3639               	.LASF71:
GAS LISTING C:\Users\thouli\AppData\Local\Temp\cc8sA0gt.s 			page 89


 3640 012a 7573 6244 		.string	"usbDescriptorStringVendor"
 3640      6573 6372 
 3640      6970 746F 
 3640      7253 7472 
 3640      696E 6756 
 3641               	.LASF1:
 3642 0144 7569 6E74 		.string	"uint8_t"
 3642      385F 7400 
 3643               	.LASF76:
 3644 014c 7573 6244 		.string	"usbDeviceAddr"
 3644      6576 6963 
 3644      6541 6464 
 3644      7200 
 3645               	.LASF50:
 3646 015a 5F5F 6164 		.string	"__addr16"
 3646      6472 3136 
 3646      00
 3647               	.LASF88:
 3648 0163 5F5F 7665 		.string	"__vector_2"
 3648      6374 6F72 
 3648      5F32 00
 3649               	.LASF62:
 3650 016e 7265 7365 		.string	"resetctr"
 3650      7463 7472 
 3650      00
 3651               	.LASF57:
 3652 0177 7573 6242 		.string	"usbBuildTxBlock"
 3652      7569 6C64 
 3652      5478 426C 
 3652      6F63 6B00 
 3653               	.LASF83:
 3654 0187 6375 7272 		.string	"currentAddress"
 3654      656E 7441 
 3654      6464 7265 
 3654      7373 00
 3655               	.LASF31:
 3656 0196 5F63 6D64 		.string	"_cmd"
 3656      00
 3657               	.LASF9:
 3658 019b 6C6F 6E67 		.string	"long long int"
 3658      206C 6F6E 
 3658      6720 696E 
 3658      7400 
 3659               	.LASF18:
 3660 01a9 7756 616C 		.string	"wValue"
 3660      7565 00
 3661               	.LASF82:
 3662 01b0 636F 6E66 		.string	"configurationReply"
 3662      6967 7572 
 3662      6174 696F 
 3662      6E52 6570 
 3662      6C79 00
 3663               	.LASF67:
 3664 01c3 6368 6172 		.string	"char"
 3664      00
 3665               	.LASF6:
 3666 01c8 6C6F 6E67 		.string	"long int"
GAS LISTING C:\Users\thouli\AppData\Local\Temp\cc8sA0gt.s 			page 90


 3666      2069 6E74 
 3666      00
 3667               	.LASF45:
 3668 01d1 5F64 656C 		.string	"_delay_ms"
 3668      6179 5F6D 
 3668      7300 
 3669               	.LASF55:
 3670 01db 6572 6173 		.string	"eraseApplication"
 3670      6541 7070 
 3670      6C69 6361 
 3670      7469 6F6E 
 3670      00
 3671               	.LASF91:
 3672 01ec 473A 5C50 		.string	"G:\\Programming\\dimitris\\tools\\micronucleus\\firmware"
 3672      726F 6772 
 3672      616D 6D69 
 3672      6E67 5C64 
 3672      696D 6974 
 3673               	.LASF84:
 3674 0220 6964 6C65 		.string	"idlePolls"
 3674      506F 6C6C 
 3674      7300 
 3675               	.LASF89:
 3676 022a 474E 5520 		.string	"GNU C11 5.4.0 -mn-flash=1 -mno-skip-bug -mmcu=avr25 -g2 -Os -ffunction-sections -fdata-se
 3676      4331 3120 
 3676      352E 342E 
 3676      3020 2D6D 
 3676      6E2D 666C 
 3677               	.LASF28:
 3678 02e3 636D 645F 		.string	"cmd_exit"
 3678      6578 6974 
 3678      00
 3679               	.LASF33:
 3680 02ec 7573 6252 		.string	"usbResetDataToggling"
 3680      6573 6574 
 3680      4461 7461 
 3680      546F 6767 
 3680      6C69 6E67 
 3681               	.LASF11:
 3682 0301 6C6F 6E67 		.string	"long double"
 3682      2064 6F75 
 3682      626C 6500 
 3683               	.LASF3:
 3684 030d 756E 7369 		.string	"unsigned char"
 3684      676E 6564 
 3684      2063 6861 
 3684      7200 
 3685               	.LASF96:
 3686 031b 6C65 6176 		.string	"leaveBootloader"
 3686      6542 6F6F 
 3686      746C 6F61 
 3686      6465 7200 
 3687               	.LASF2:
 3688 032b 7369 676E 		.string	"signed char"
 3688      6564 2063 
 3688      6861 7200 
 3689               	.LASF30:
GAS LISTING C:\Users\thouli\AppData\Local\Temp\cc8sA0gt.s 			page 91


 3690 0337 666C 6167 		.string	"flags"
 3690      7300 
 3691               	.LASF10:
 3692 033d 6C6F 6E67 		.string	"long long unsigned int"
 3692      206C 6F6E 
 3692      6720 756E 
 3692      7369 676E 
 3692      6564 2069 
 3693               	.LASF7:
 3694 0354 7569 6E74 		.string	"uint32_t"
 3694      3332 5F74 
 3694      00
 3695               	.LASF5:
 3696 035d 756E 7369 		.string	"unsigned int"
 3696      676E 6564 
 3696      2069 6E74 
 3696      00
 3697               	.LASF4:
 3698 036a 7569 6E74 		.string	"uint16_t"
 3698      3136 5F74 
 3698      00
 3699               	.LASF51:
 3700 0373 5F5F 7265 		.string	"__result"
 3700      7375 6C74 
 3700      00
 3701               	.LASF40:
 3702 037c 6461 7461 		.string	"dataPtr"
 3702      5074 7200 
 3703               	.LASF69:
 3704 0384 7573 6244 		.string	"usbDescriptorConfiguration"
 3704      6573 6372 
 3704      6970 746F 
 3704      7243 6F6E 
 3704      6669 6775 
 3705               	.LASF78:
 3706 039f 7573 6252 		.string	"usbRxLen"
 3706      784C 656E 
 3706      00
 3707               	.LASF92:
 3708 03a8 7573 6257 		.string	"usbWord"
 3708      6F72 6400 
 3709               	.LASF32:
 3710 03b0 7573 6252 		.string	"usbResetStall"
 3710      6573 6574 
 3710      5374 616C 
 3710      6C00 
 3711               	.LASF77:
 3712 03be 7573 624E 		.string	"usbNewDeviceAddr"
 3712      6577 4465 
 3712      7669 6365 
 3712      4164 6472 
 3712      00
 3713               	.LASF86:
 3714 03cf 7573 6243 		.string	"usbCrc16Append"
 3714      7263 3136 
 3714      4170 7065 
 3714      6E64 00
GAS LISTING C:\Users\thouli\AppData\Local\Temp\cc8sA0gt.s 			page 92


 3715               	.LASF73:
 3716 03de 7573 6244 		.string	"usbDescriptorStringSerialNumber"
 3716      6573 6372 
 3716      6970 746F 
 3716      7253 7472 
 3716      696E 6753 
 3717               	.LASF70:
 3718 03fe 7573 6244 		.string	"usbDescriptorString0"
 3718      6573 6372 
 3718      6970 746F 
 3718      7253 7472 
 3718      696E 6730 
 3719               	.LASF15:
 3720 0413 7573 6257 		.string	"usbWord_t"
 3720      6F72 645F 
 3720      7400 
 3721               	.LASF58:
 3722 041d 7761 6E74 		.string	"wantLen"
 3722      4C65 6E00 
 3723               	.LASF81:
 3724 0425 7573 6254 		.string	"usbTxBuf"
 3724      7842 7566 
 3724      00
 3725               	.LASF64:
 3726 042e 7573 624D 		.string	"usbMsgPtr"
 3726      7367 5074 
 3726      7200 
 3727               	.LASF39:
 3728 0438 7573 6244 		.string	"usbDriverSetup"
 3728      7269 7665 
 3728      7253 6574 
 3728      7570 00
 3729               	.LASF95:
 3730 0447 736B 6970 		.string	"skipMsgPtrAssignment"
 3730      4D73 6750 
 3730      7472 4173 
 3730      7369 676E 
 3730      6D65 6E74 
 3731               	.LASF16:
 3732 045c 626D 5265 		.string	"bmRequestType"
 3732      7175 6573 
 3732      7454 7970 
 3732      6500 
 3733               	.LASF23:
 3734 046a 636D 645F 		.string	"cmd_local_nop"
 3734      6C6F 6361 
 3734      6C5F 6E6F 
 3734      7000 
 3735               	.LASF44:
 3736 0478 6461 7461 		.string	"data"
 3736      00
 3737               	.LASF29:
 3738 047d 636D 645F 		.string	"cmd_write_page"
 3738      7772 6974 
 3738      655F 7061 
 3738      6765 00
 3739               	.LASF79:
GAS LISTING C:\Users\thouli\AppData\Local\Temp\cc8sA0gt.s 			page 93


 3740 048c 7573 6243 		.string	"usbCurrentTok"
 3740      7572 7265 
 3740      6E74 546F 
 3740      6B00 
 3741               	.LASF90:
 3742 049a 6D61 696E 		.string	"main.c"
 3742      2E63 00
 3743               	.LASF8:
 3744 04a1 6C6F 6E67 		.string	"long unsigned int"
 3744      2075 6E73 
 3744      6967 6E65 
 3744      6420 696E 
 3744      7400 
 3745               	.LASF14:
 3746 04b3 6279 7465 		.string	"bytes"
 3746      7300 
 3747               	.LASF37:
 3748 04b9 646F 7562 		.string	"double"
 3748      6C65 00
 3749               	.LASF43:
 3750 04c0 7573 6246 		.string	"usbFunctionSetup"
 3750      756E 6374 
 3750      696F 6E53 
 3750      6574 7570 
 3750      00
 3751               	.LASF72:
 3752 04d1 7573 6244 		.string	"usbDescriptorStringDevice"
 3752      6573 6372 
 3752      6970 746F 
 3752      7253 7472 
 3752      696E 6744 
 3753               	.LASF63:
 3754 04eb 7573 624D 		.string	"usbMsgLen"
 3754      7367 4C65 
 3754      6E00 
 3755               	.LASF85:
 3756 04f5 636F 6D6D 		.string	"command"
 3756      616E 6400 
 3757               	.LASF24:
 3758 04fd 636D 645F 		.string	"cmd_device_info"
 3758      6465 7669 
 3758      6365 5F69 
 3758      6E66 6F00 
 3759               	.LASF22:
 3760 050d 7569 6E74 		.string	"uint16_union_t"
 3760      3136 5F75 
 3760      6E69 6F6E 
 3760      5F74 00
 3761               	.LASF21:
 3762 051c 7573 6252 		.string	"usbRequest_t"
 3762      6571 7565 
 3762      7374 5F74 
 3762      00
 3763               	.LASF34:
 3764 0529 5F5F 6D73 		.string	"__ms"
 3764      00
 3765               	.LASF36:
GAS LISTING C:\Users\thouli\AppData\Local\Temp\cc8sA0gt.s 			page 94


 3766 052e 5F5F 7469 		.string	"__ticks_dc"
 3766      636B 735F 
 3766      6463 00
 3767               	.LASF49:
 3768 0539 7573 6244 		.string	"usbDeviceRead"
 3768      6576 6963 
 3768      6552 6561 
 3768      6400 
 3769               	.LASF75:
 3770 0547 7573 6249 		.string	"usbInputBufOffset"
 3770      6E70 7574 
 3770      4275 664F 
 3770      6666 7365 
 3770      7400 
 3771               	.LASF46:
 3772 0559 7573 6250 		.string	"usbProcessRx"
 3772      726F 6365 
 3772      7373 5278 
 3772      00
 3773               	.LASF20:
 3774 0566 774C 656E 		.string	"wLength"
 3774      6774 6800 
 3775               	.LASF26:
 3776 056e 636D 645F 		.string	"cmd_erase_application"
 3776      6572 6173 
 3776      655F 6170 
 3776      706C 6963 
 3776      6174 696F 
 3777               	.LASF65:
 3778 0584 7573 6252 		.string	"usbRxToken"
 3778      7854 6F6B 
 3778      656E 00
 3779               	.LASF74:
 3780 058f 7573 6252 		.string	"usbRxBuf"
 3780      7842 7566 
 3780      00
 3781               	.LASF25:
 3782 0598 636D 645F 		.string	"cmd_transfer_page"
 3782      7472 616E 
 3782      7366 6572 
 3782      5F70 6167 
 3782      6500 
 3783               	.LASF19:
 3784 05aa 7749 6E64 		.string	"wIndex"
 3784      6578 00
 3785               	.LASF56:
 3786 05b1 7772 6974 		.string	"writeFlashPage"
 3786      6546 6C61 
 3786      7368 5061 
 3786      6765 00
 3787               		.ident	"GCC: (AVR_8_bit_GNU_Toolchain_3.6.2_1778) 5.4.0"
 3788               	.global __do_clear_bss
GAS LISTING C:\Users\thouli\AppData\Local\Temp\cc8sA0gt.s 			page 95


DEFINED SYMBOLS
                            *ABS*:00000000 main.c
C:\Users\thouli\AppData\Local\Temp\cc8sA0gt.s:2      *ABS*:0000003e __SP_H__
C:\Users\thouli\AppData\Local\Temp\cc8sA0gt.s:3      *ABS*:0000003d __SP_L__
C:\Users\thouli\AppData\Local\Temp\cc8sA0gt.s:4      *ABS*:0000003f __SREG__
C:\Users\thouli\AppData\Local\Temp\cc8sA0gt.s:5      *ABS*:00000000 __tmp_reg__
C:\Users\thouli\AppData\Local\Temp\cc8sA0gt.s:6      *ABS*:00000001 __zero_reg__
C:\Users\thouli\AppData\Local\Temp\cc8sA0gt.s:12     .text.writeWordToPageBuffer:00000000 writeWordToPageBuffer
C:\Users\thouli\AppData\Local\Temp\cc8sA0gt.s:66     .text.initHardware:00000000 initHardware
                            *COM*:00000001 usbTxLen
C:\Users\thouli\AppData\Local\Temp\cc8sA0gt.s:859    .bss.usbMsgLen:00000000 usbMsgLen
C:\Users\thouli\AppData\Local\Temp\cc8sA0gt.s:127    .text.startup.main:00000000 main
                            *COM*:00000001 usbNewDeviceAddr
                            *COM*:00000001 usbDeviceAddr
                            *COM*:00000001 usbRxLen
                            *COM*:00000001 usbRxToken
                            *COM*:0000000b usbTxBuf
                            *COM*:00000016 usbRxBuf
C:\Users\thouli\AppData\Local\Temp\cc8sA0gt.s:794    .progmem.data.configurationReply:00000000 configurationReply
                            *COM*:00000002 usbMsgPtr
C:\Users\thouli\AppData\Local\Temp\cc8sA0gt.s:828    .progmem.data.usbDescriptorDevice:00000000 usbDescriptorDevice
C:\Users\thouli\AppData\Local\Temp\cc8sA0gt.s:805    .progmem.data.usbDescriptorConfiguration:00000000 usbDescriptorConfiguration
C:\Users\thouli\AppData\Local\Temp\cc8sA0gt.s:851    .progmem.data.usbDescriptorString0:00000000 usbDescriptorString0
                            *COM*:00000001 usbConfiguration
C:\Users\thouli\AppData\Local\Temp\cc8sA0gt.s:749    .text.startup.main:00000270 loop717
                            *COM*:00000001 usbCurrentTok
                            *COM*:00000001 usbInputBufOffset

UNDEFINED SYMBOLS
calibrateOscillatorASM
__vector_2
usbCrc16Append
__vectors
__do_clear_bss
